ccollections
defaultdict
p0
(c__builtin__
float
p1
tp2
Rp3
S'210201201'
p4
F0.0
sS'011211202'
p5
F0.0004297522278585713
sS'112121122'
p6
F1.0
sS'211020120'
p7
F0.35687632695570004
sS'211020121'
p8
F0.14400761514955182
sS'211110202'
p9
F0.5
sS'002201121'
p10
F0.49150403791416447
sS'121210012'
p11
F0.26798715003384693
sS'001102221'
p12
F0.5014
sS'112210200'
p13
F0.9068446151213504
sS'112210201'
p14
F1.0
sS'111021220'
p15
F1.0
sS'222121011'
p16
F0.0
sS'220121121'
p17
F0.0
sS'021100221'
p18
F0.55
sS'000102001'
p19
F0.49950476976455094
sS'020011210'
p20
F0.3358172623677798
sS'020011212'
p21
F0.8862841828298906
sS'012021112'
p22
F0.07522806261926934
sS'110100022'
p23
F0.5
sS'002101210'
p24
F0.5
sS'012100102'
p25
F0.45
sS'211102210'
p26
F0.31568245651645327
sS'211102212'
p27
F0.5950000000000001
sS'212021001'
p28
F0.15074357518725365
sS'120112012'
p29
F0.0002842095348103894
sS'010000002'
p30
F0.5189867882021602
sS'010000000'
p31
F0.08812495480726343
sS'120200211'
p32
F0.55
sS'010102012'
p33
F0.45
sS'120121012'
p34
F0.0003044976998626043
sS'021122112'
p35
F0.87290670858355
sS'021122110'
p36
F0.7580894597325547
sS'112102200'
p37
F0.3814741776115305
sS'112102201'
p38
F0.2657205
sS'210010221'
p39
F0.20909752785734814
sS'202111102'
p40
F1.0
sS'121100220'
p41
F0.5
sS'121100221'
p42
F0.405
sS'201100000'
p43
F0.4716699017016538
sS'201100002'
p44
F0.5026149999999999
sS'211210102'
p45
F1.0
sS'111220021'
p46
F1.0
sS'022111012'
p47
F1.0
sS'102020001'
p48
F0.7718399917549522
sS'221001001'
p49
F1.0
sS'221001000'
p50
F0.82566077995
sS'200101012'
p51
F0.5
sS'000021100'
p52
F0.05474700299994701
sS'000021102'
p53
F0.39293613184086856
sS'120021021'
p54
F0.0
sS'010210221'
p55
F0.5
sS'121000212'
p56
F0.48932558055
sS'121000210'
p57
F0.4964886502981153
sS'022121101'
p58
F0.405
sS'120020211'
p59
F0.2663966402167205
sS'020110120'
p60
F0.5
sS'100201201'
p61
F0.5
sS'100201200'
p62
F0.50045
sS'111221212'
p63
F1.0
sS'011022120'
p64
F0.6355000000000001
sS'121220110'
p65
F0.32805000000000006
sS'121220112'
p66
F1.47259181773273e-12
sS'001202100'
p67
F0.5950000000000001
sS'000012021'
p68
F0.9437797455538667
sS'201211002'
p69
F0.9085425691163505
sS'000101202'
p70
F0.5950000000000001
sS'201211000'
p71
F0.36450000000000005
sS'000101200'
p72
F0.481156762991733
sS'021111022'
p73
F1.0
sS'211120122'
p74
F0.0
sS'211120120'
p75
F0.23914845
sS'102021201'
p76
F0.0
sS'100210212'
p77
F0.9567236577285045
sS'100210210'
p78
F0.5
sS'011201220'
p79
F0.5
sS'210012010'
p80
F1.0
sS'022112112'
p81
F0.0
sS'120101200'
p82
F0.4995
sS'120101202'
p83
F0.55
sS'022201011'
p84
F0.502615
sS'222100101'
p85
F0.0
sS'222112101'
p86
F0.0
sS'201000201'
p87
F0.55
sS'212000211'
p88
F0.5
sS'211120200'
p89
F0.19317944622947664
sS'102100012'
p90
F0.405
sS'200121120'
p91
F0.495
sS'200121121'
p92
F0.0037712930273296665
sS'121002210'
p93
F0.4788642952443459
sS'121002211'
p94
F0.4129591815
sS'021121122'
p95
F0.0
sS'111002122'
p96
F1.0
sS'000210102'
p97
F0.9796685185601355
sS'011100202'
p98
F0.4645
sS'212121000'
p99
F0.44292002444999995
sS'212121001'
p100
F0.054709494565756175
sS'120022101'
p101
F0.5950000000000001
sS'101010022'
p102
F0.27551386817594997
sS'001210210'
p103
F0.45
sS'100002010'
p104
F0.5
sS'100002012'
p105
F0.50045
sS'101212102'
p106
F1.0
sS'022112100'
p107
F0.5950000000000001
sS'022112101'
p108
F0.45
sS'101022012'
p109
F0.7761607799499999
sS'101022010'
p110
F0.36450000000000005
sS'000100212'
p111
F0.5
sS'200211102'
p112
F0.9387587462890895
sS'200211100'
p113
F0.39214538030813284
sS'122010210'
p114
F0.67195
sS'122010211'
p115
F1.0
sS'121001022'
p116
F0.5
sS'121001020'
p117
F0.405
sS'210122211'
p118
F0.0675425858836496
sS'221010001'
p119
F0.514
sS'221010000'
p120
F0.9601167784615637
sS'021210012'
p121
F0.9556853094017375
sS'021210010'
p122
F0.48068667407976695
sS'112021020'
p123
F0.2358656267268004
sS'112021021'
p124
F0.09265100944259205
sS'210020110'
p125
F0.29524500000000004
sS'210020112'
p126
F0.0
sS'120121221'
p127
F0.0
sS'021002101'
p128
F0.5
sS'021002100'
p129
F0.55
sS'010000212'
p130
F0.5
sS'010000210'
p131
F0.4656576687948755
sS'010101222'
p132
F0.0
sS'010101220'
p133
F0.45
sS'122120101'
p134
F1.0
sS'020011002'
p135
F0.98566114985734
sS'201120102'
p136
F0.0
sS'212201110'
p137
F0.505
sS'201120100'
p138
F0.004284989143460467
sS'212201112'
p139
F0.5950000000000001
sS'021112002'
p140
F0.9119107170824576
sS'021112000'
p141
F0.498834693198045
sS'020101021'
p142
F0.5
sS'020101020'
p143
F0.55
sS'220011112'
p144
F0.36450000000000005
sS'122110212'
p145
F0.9991913453650385
sS'020100211'
p146
F0.47118958550291534
sS'020100210'
p147
F0.5
sS'122001001'
p148
F0.49815
sS'122001000'
p149
F0.5
sS'110001220'
p150
F0.45
sS'110001222'
p151
F0.0
sS'221000011'
p152
F0.5095000000000001
sS'221000010'
p153
F0.5005
sS'012211210'
p154
F1.0
sS'012201012'
p155
F0.55
sS'101020120'
p156
F0.45
sS'012201010'
p157
F0.4541592313996403
sS'200100000'
p158
F0.4911714137014186
sS'101020122'
p159
F0.82566077995
sS'012220101'
p160
F0.5950000000000001
sS'201221010'
p161
F0.55
sS'201221011'
p162
F1.0
sS'100202011'
p163
F0.5
sS'100202010'
p164
F0.5
sS'010022121'
p165
F0.3669968211354359
sS'220211121'
p166
F0.5
sS'210002001'
p167
F0.5005
sS'112121202'
p168
F0.0
sS'000211102'
p169
F0.019678830561493887
sS'212112121'
p170
F0.0
sS'212112120'
p171
F0.015451577191316302
sS'201211212'
p172
F0.0
sS'200101201'
p173
F0.5
sS'200101200'
p174
F0.55
sS'010010221'
p175
F0.2949958186699006
sS'010010220'
p176
F0.3507869252822195
sS'200200111'
p177
F1.0
sS'200200110'
p178
F0.8062897554999999
sS'010121202'
p179
F0.5
sS'010121200'
p180
F0.29524500000000004
sS'010120002'
p181
F0.5489991287312409
sS'110220112'
p182
F0.013002266485597578
sS'002002011'
p183
F0.6355000000000001
sS'112022112'
p184
F0.0
sS'112022110'
p185
F0.405
sS'020102101'
p186
F0.5
sS'020102100'
p187
F0.55
sS'110202021'
p188
F0.5
sS'120012012'
p189
F0.4634297021573051
sS'120012010'
p190
F0.49824337275748
sS'111221002'
p191
F1.0
sS'100102201'
p192
F0.45075003000213587
sS'100102200'
p193
F0.4807365656873796
sS'211022121'
p194
F0.019076021223847286
sS'012120120'
p195
F0.8979950537027279
sS'012120121'
p196
F0.05202787126724233
sS'100212112'
p197
F0.5
sS'121002001'
p198
F0.48972912943499997
sS'010101022'
p199
F0.5
sS'011211222'
p200
F0.0
sS'011211220'
p201
F0.5
sS'211110222'
p202
F0.0
sS'211110220'
p203
F0.23914845
sS'210012201'
p204
F0.55
sS'001102201'
p205
F0.4521808074247881
sS'001102200'
p206
F0.4974875594010385
sS'012001021'
p207
F0.5
sS'012001020'
p208
F0.5
sS'002201101'
p209
F0.49930789499999995
sS'002201100'
p210
F0.4999176080505
sS'021211120'
p211
F1.0
sS'100001020'
p212
F0.5
sS'100001022'
p213
F0.5
sS'220101210'
p214
F0.5950000000000001
sS'220101211'
p215
F0.45
sS'221200011'
p216
F0.5950000000000001
sS'020000001'
p217
F0.6618139483553076
sS'021100201'
p218
F0.5
sS'021100200'
p219
F0.5
sS'220021110'
p220
F0.7847663949999999
sS'220021111'
p221
F1.0
sS'120001210'
p222
F0.49813595702999997
sS'110201220'
p223
F0.55
sS'110201221'
p224
F0.5
sS'210112102'
p225
F0.45
sS'001212201'
p226
F0.55
sS'012100120'
p227
F0.5
sS'012100122'
p228
F0.5
sS'202011102'
p229
F0.9452905054342439
sS'202011100'
p230
F0.36450000000000005
sS'221011012'
p231
F0.6271978299323955
sS'000121201'
p232
F0.0023589373297259915
sS'000121200'
p233
F0.4385876866628591
sS'000011122'
p234
F0.5085500000000001
sS'010000020'
p235
F0.48360350965735605
sS'010000021'
p236
F0.49613468306649944
sS'110020012'
p237
F0.2859691420971568
sS'120201010'
p238
F0.49995
sS'120201012'
p239
F0.494850473176485
sS'112122201'
p240
F0.0
sS'112102221'
p241
F0.6355000000000001
sS'020012001'
p242
F0.55
sS'101200102'
p243
F0.8289804079338996
sS'122010001'
p244
F1.0
sS'122010000'
p245
F0.5950000000000001
sS'202111120'
p246
F1.0
sS'210010201'
p247
F0.29524500000000004
sS'210010200'
p248
F0.67195
sS'221100210'
p249
F0.5005
sS'221100211'
p250
F0.5
sS'101221012'
p251
F0.0004217434621919168
sS'112002010'
p252
F0.405
sS'112002012'
p253
F0.0
sS'201100021'
p254
F0.5
sS'212100121'
p255
F0.47657205
sS'202012101'
p256
F0.9772006527576335
sS'012210010'
p257
F1.0
sS'200111002'
p258
F1.0
sS'010220211'
p259
F0.4709745
sS'021020101'
p260
F0.0060410045924442855
sS'021110221'
p261
F0.5
sS'000021121'
p262
F0.0161789563729602
sS'000021120'
p263
F0.4616480852843937
sS'020210011'
p264
F0.5078305
sS'020210010'
p265
F0.6811230678835893
sS'111200122'
p266
F1.0
sS'010210201'
p267
F0.5
sS'012200001'
p268
F0.5
sS'022121121'
p269
F0.0
sS'120120210'
p270
F0.4448772155975063
sS'120120211'
p271
F0.11008493144759204
sS'120021001'
p272
F0.23914845
sS'120021000'
p273
F0.3169112938185912
sS'101102202'
p274
F0.55
sS'101102200'
p275
F0.464405947159971
sS'121020210'
p276
F0.17791213944403242
sS'121020211'
p277
F0.11287611413149487
sS'201012201'
p278
F0.4779
sS'001001200'
p279
F0.5032211920230769
sS'001001202'
p280
F0.48985600403021357
sS'000000012'
p281
F0.47909178508961753
sS'000000010'
p282
F0.08696317960029558
sS'100110022'
p283
F0.45
sS'112211212'
p284
F1.0
sS'021112212'
p285
F8.91925846887816e-80
sS'021112210'
p286
F0.11818296881673641
sS'110122012'
p287
F0.45
sS'201211020'
p288
F0.7608515499999999
sS'201211021'
p289
F1.0
sS'022110210'
p290
F0.5950000000000001
sS'022110211'
p291
F0.5
sS'020100021'
p292
F0.5
sS'100120120'
p293
F1.0
sS'221101020'
p294
F0.55
sS'221101021'
p295
F1.0
sS'121122211'
p296
F0.0
sS'121122210'
p297
F0.0015216263610852265
sS'010200211'
p298
F0.45
sS'010200210'
p299
F0.55
sS'100001200'
p300
F0.49985298222337443
sS'100001202'
p301
F0.49810884555775287
sS'200121100'
p302
F0.004986160283665987
sS'200121102'
p303
F0.0
sS'210002211'
p304
F0.55
sS'011100220'
p305
F0.45
sS'011100222'
p306
F0.0
sS'120001122'
p307
F0.55
sS'120001120'
p308
F0.5
sS'112101220'
p309
F0.32805000000000006
sS'021020011'
p310
F0.6337743220090781
sS'021020010'
p311
F0.5437165994634507
sS'211122010'
p312
F0.08338590849833284
sS'211122012'
p313
F0.0
sS'221211012'
p314
F0.994013742408719
sS'221211010'
p315
F0.5036093580527815
sS'200001012'
p316
F0.5005
sS'200001010'
p317
F0.4967973551746006
sS'101212120'
p318
F1.0
sS'211221210'
p319
F0.0
sS'102211200'
p320
F0.5950000000000001
sS'102211201'
p321
F1.0
sS'010021021'
p322
F0.5
sS'010021020'
p323
F0.5206342284791416
sS'021200101'
p324
F0.5
sS'021200100'
p325
F0.55
sS'002120110'
p326
F0.6634458748767114
sS'200211121'
p327
F0.4656905298045
sS'002120112'
p328
F0.7620258808942592
sS'010202211'
p329
F0.5
sS'010020211'
p330
F0.002699711226481214
sS'010020210'
p331
F0.40319238984319705
sS'121001002'
p332
F0.4489593346018348
sS'221010021'
p333
F0.9759480142806131
sS'112221201'
p334
F0.0
sS'011220112'
p335
F0.23914845
sS'111212122'
p336
F1.0
sS'210201012'
p337
F0.5950000000000001
sS'210201010'
p338
F0.45
sS'112021000'
p339
F0.002975947594556906
sS'112021002'
p340
F0.2291701802193298
sS'211000210'
p341
F0.45
sS'121120102'
p342
F1.0
sS'102000000'
p343
F0.6938131033822462
sS'102000001'
p344
F0.7334561840276387
sS'110021002'
p345
F0.35438094811772736
sS'001122112'
p346
F0.1937102445
sS'001220011'
p347
F0.405
sS'022100110'
p348
F0.5
sS'022100112'
p349
F0.55
sS'001220010'
p350
F0.4694411926333299
sS'212110210'
p351
F1.0
sS'010101202'
p352
F0.45
sS'221102121'
p353
F0.5
sS'002010201'
p354
F0.6355000000000001
sS'020011021'
p355
F0.5
sS'020011020'
p356
F0.5905
sS'110001022'
p357
F0.45
sS'122011012'
p358
F0.14612598450144537
sS'201120120'
p359
F0.5
sS'201120121'
p360
F0.0006120710421388296
sS'021112020'
p361
F0.6355000000000001
sS'021112021'
p362
F0.5
sS'001211002'
p363
F0.011682094179004081
sS'020201011'
p364
F0.5
sS'020201010'
p365
F0.5005
sS'020101002'
p366
F0.55
sS'020101000'
p367
F0.4992185478375
sS'011002210'
p368
F0.4995
sS'011002212'
p369
F0.55
sS'212021211'
p370
F0.0
sS'112020201'
p371
F0.0
sS'121010212'
p372
F0.001504029928221349
sS'021002121'
p373
F0.55
sS'122211012'
p374
F0.000589509228886929
sS'221001210'
p375
F0.55
sS'122211010'
p376
F0.18199092139927242
sS'212221111'
p377
F1.0
sS'212221110'
p378
F0.8062897554999999
sS'010022101'
p379
F0.024263053551521526
sS'010022100'
p380
F0.1131975854394401
sS'022121100'
p381
F0.72075655
sS'221020011'
p382
F0.7608515499999999
sS'020110122'
p383
F0.5950000000000001
sS'220211100'
p384
F0.6355000000000001
sS'220211101'
p385
F0.5
sS'221110120'
p386
F1.0
sS'112002201'
p387
F0.55
sS'221120110'
p388
F0.29524500000000004
sS'012010210'
p389
F1.0
sS'012210201'
p390
F0.5
sS'002020011'
p391
F0.9103818947780691
sS'201212010'
p392
F0.55
sS'201212011'
p393
F0.5
sS'001002201'
p394
F0.5
sS'011001022'
p395
F0.45
sS'100010212'
p396
F0.01645605473167564
sS'212112102'
p397
F0.0
sS'001200211'
p398
F0.5
sS'001200210'
p399
F0.501014069065
sS'000120100'
p400
F0.04381497400797051
sS'000120102'
p401
F0.8832012651882823
sS'200101221'
p402
F0.55
sS'021212101'
p403
F1.0
sS'011120122'
p404
F0.5
sS'211212121'
p405
F1.0
sS'121020001'
p406
F0.0617695529682513
sS'121020000'
p407
F0.022850279154091477
sS'120020001'
p408
F0.4536522580452437
sS'010121220'
p409
F0.4693185
sS'010121221'
p410
F0.405
sS'100201012'
p411
F0.48925824874296525
sS'020121120'
p412
F0.0
sS'022011112'
p413
F0.0008086546349614939
sS'110202001'
p414
F0.45
sS'110202000'
p415
F0.8291706805420005
sS'211022100'
p416
F0.3993779115
sS'211022101'
p417
F0.0018783816618515722
sS'210221001'
p418
F0.9188408538807415
sS'012120100'
p419
F0.01192212470511651
sS'012120102'
p420
F0.822747014549245
sS'121202001'
p421
F0.5950000000000001
sS'100020112'
p422
F0.009836819335124734
sS'101222100'
p423
F0.0
sS'012001002'
p424
F0.50095
sS'012001000'
p425
F0.44153399386818387
sS'021211102'
p426
F1.0
sS'220110112'
p427
F0.32805000000000006
sS'100001002'
p428
F0.4800429895543255
sS'100002201'
p429
F0.704755
sS'011022121'
p430
F0.24176518816513684
sS'001220211'
p431
F0.9270857583408194
sS'122102211'
p432
F0.5
sS'110201200'
p433
F0.5041
sS'110201202'
p434
F0.5950000000000001
sS'120221121'
p435
F0.0
sS'002110221'
p436
F0.5
sS'121002021'
p437
F0.55
sS'102221112'
p438
F1.1274382011705522e-50
sS'102221110'
p439
F0.04295591409500223
sS'210112122'
p440
F0.6355000000000001
sS'112201102'
p441
F0.3749797367498333
sS'202011120'
p442
F0.5
sS'202011121'
p443
F0.32805000000000006
sS'000121221'
p444
F0.5
sS'210001102'
p445
F0.5
sS'011202021'
p446
F0.5
sS'122000101'
p447
F0.5
sS'122000100'
p448
F0.813570201955
sS'101200120'
p449
F0.8276831223735258
sS'120002011'
p450
F0.5
sS'120002010'
p451
F0.5
sS'001112020'
p452
F0.49974791535000007
sS'010020021'
p453
F0.5093320953382781
sS'012010221'
p454
F0.5
sS'212100100'
p455
F0.37634131506655855
sS'000200121'
p456
F0.5
sS'212100102'
p457
F0.4915
sS'120010102'
p458
F0.5095000000000001
sS'010012012'
p459
F1.0
sS'100110222'
p460
F0.0
sS'100110220'
p461
F0.45
sS'011002000'
p462
F0.4998610568511011
sS'011002002'
p463
F0.5950000000000001
sS'101102220'
p464
F0.55
sS'101102221'
p465
F0.5180500000000001
sS'001001221'
p466
F1.0
sS'001001220'
p467
F0.5950000000000001
sS'201110122'
p468
F1.0
sS'212122011'
p469
F0.5950000000000001
sS'202211112'
p470
F0.9556853094017375
sS'202211110'
p471
F0.156905298045
sS'020100000'
p472
F0.581490584873483
sS'020100001'
p473
F0.49279098705405716
sS'102120100'
p474
F1.0
sS'011212000'
p475
F0.5
sS'122001210'
p476
F0.5039628975549999
sS'122001211'
p477
F0.405
sS'222110121'
p478
F0.0
sS'102011122'
p479
F0.4500000003980102
sS'000100002'
p480
F0.4987940654938575
sS'000100000'
p481
F0.09535916219009122
sS'100010002'
p482
F0.05076280949101197
sS'021001000'
p483
F0.6441851227054507
sS'100120102'
p484
F1.0
sS'021001002'
p485
F0.6504915705841291
sS'221101000'
p486
F0.5
sS'221101002'
p487
F0.55
sS'010010212'
p488
F1.0
sS'110022102'
p489
F0.76211077995
sS'110022100'
p490
F0.017569390752289936
sS'001222110'
p491
F0.0
sS'100022011'
p492
F0.36450000000000005
sS'100022010'
p493
F0.46145474977800943
sS'010201012'
p494
F0.49986520949456575
sS'202110112'
p495
F0.405
sS'210122112'
p496
F0.0
sS'011001220'
p497
F0.5
sS'012010000'
p498
F0.4493824061621964
sS'012010002'
p499
F0.9111645621256527
sS'210220011'
p500
F0.6355000000000001
sS'100102012'
p501
F0.45
sS'101201200'
p502
F0.5
sS'212210121'
p503
F0.03988322153843625
sS'112101202'
p504
F0.5
sS'111202012'
p505
F1.0
sS'211222011'
p506
F0.0
sS'102012120'
p507
F0.5950000000000001
sS'102012121'
p508
F1.0
sS'212100001'
p509
F0.4305305007544048
sS'002221110'
p510
F0.55
sS'002221111'
p511
F1.0
sS'212001120'
p512
F0.49905
sS'212001121'
p513
F0.4779
sS'212101120'
p514
F0.48645
sS'021200121'
p515
F0.55
sS'010120212'
p516
F0.4494285
sS'010120210'
p517
F0.28580445000000004
sS'212101122'
p518
F0.5
sS'010021002'
p519
F0.405797942083296
sS'010021000'
p520
F0.032910002931971175
sS'011020210'
p521
F0.318598320092761
sS'011020212'
p522
F0.7608515499999999
sS'121221100'
p523
F0.23914845
sS'121221102'
p524
F0.008211601634130327
sS'220010101'
p525
F0.5
sS'220010100'
p526
F0.5950000000000001
sS'221112211'
p527
F0.0
sS'221112210'
p528
F0.005387631832152908
sS'120122001'
p529
F0.55
sS'102000021'
p530
F0.7608515499999999
sS'020122011'
p531
F0.55
sS'001102012'
p532
F0.5
sS'110021020'
p533
F0.3588287528526996
sS'110021022'
p534
F0.55
sS'001011022'
p535
F0.48930947019550003
sS'001200021'
p536
F0.55
sS'101122002'
p537
F0.704755
sS'200010201'
p538
F0.34747485984869747
sS'101122000'
p539
F0.608888706103855
sS'102000121'
p540
F0.5
sS'102000120'
p541
F0.823723677505
sS'211020210'
p542
F0.20774979233372967
sS'211020211'
p543
F0.09265100944259205
sS'021100012'
p544
F0.49876168242514995
sS'122102001'
p545
F0.5
sS'011122210'
p546
F0.18944617136612568
sS'011122212'
p547
F0.6355000000000001
sS'210010012'
p548
F1.0
sS'101221200'
p549
F0.8344988914049339
sS'101221201'
p550
F1.0
sS'122121100'
p551
F1.0
sS'021011202'
p552
F0.9825482033671349
sS'021011200'
p553
F0.967140554778492
sS'001212012'
p554
F0.55
sS'001212010'
p555
F0.5
sS'002102001'
p556
F0.5
sS'210021201'
p557
F0.5
sS'102122110'
p558
F1.0
sS'010001122'
p559
F0.5
sS'111012220'
p560
F1.0
sS'220000011'
p561
F0.55
sS'002212011'
p562
F0.5
sS'121102012'
p563
F0.5
sS'110000200'
p564
F0.7873583108231124
sS'110000202'
p565
F0.82566077995
sS'221110102'
p566
F1.0
sS'112012210'
p567
F1.0
sS'202110021'
p568
F0.5950000000000001
sS'122211102'
p569
F0.019076021223847286
sS'202101210'
p570
F0.55
sS'202101211'
p571
F0.5
sS'101210221'
p572
F1.0
sS'202021110'
p573
F0.5950000000000001
sS'202021111'
p574
F1.0
sS'202120101'
p575
F0.8596133560235901
sS'021000010'
p576
F0.49996825853812665
sS'000120121'
p577
F0.08876742637248058
sS'021000012'
p578
F0.499647837166143
sS'010210012'
p579
F1.0
sS'102101220'
p580
F0.55
sS'102101221'
p581
F0.5
sS'120021210'
p582
F0.5
sS'000012201'
p583
F0.55
sS'121020021'
p584
F0.0
sS'020021001'
p585
F0.79318382995
sS'210102012'
p586
F0.5950000000000001
sS'210102010'
p587
F0.49869941364450004
sS'020121100'
p588
F0.006977434284986775
sS'020121102'
p589
F0.5
sS'002111200'
p590
F1.0
sS'120110202'
p591
F0.843094701955
sS'120110200'
p592
F0.7298506920371219
sS'000110200'
p593
F0.43801759897233417
sS'000110202'
p594
F0.8906186079927889
sS'020001021'
p595
F0.55
sS'000212112'
p596
F0.55
sS'101020020'
p597
F0.79908872995
sS'000212110'
p598
F0.505
sS'002012101'
p599
F0.9709372271720509
sS'101222121'
p600
F0.0
sS'012121122'
p601
F0.5950000000000001
sS'100112202'
p602
F0.1715248745480748
sS'100112200'
p603
F0.3200174155855174
sS'211102012'
p604
F0.45
sS'001112202'
p605
F0.006882598057016979
sS'001112200'
p606
F0.29330955208963666
sS'100020121'
p607
F0.047317078655157815
sS'200112021'
p608
F0.46951832136599997
sS'100020120'
p609
F0.8555540247706329
sS'120221100'
p610
F0.3440787313261136
sS'120221101'
p611
F0.23914845
sS'022012110'
p612
F0.87290670858355
sS'022012111'
p613
F1.0
sS'102201121'
p614
F0.3748293666475988
sS'000220101'
p615
F0.9196466908710268
sS'120200011'
p616
F0.5
sS'120200010'
p617
F0.5
sS'002110201'
p618
F0.5
sS'002110200'
p619
F0.67195
sS'122112211'
p620
F1.0
sS'122112210'
p621
F0.55
sS'100021221'
p622
F0.5950000000000001
sS'000001012'
p623
F0.4432453578453365
sS'100221010'
p624
F0.04765919228266124
sS'100221012'
p625
F0.050074664581812506
sS'011212221'
p626
F0.5
sS'122000121'
p627
F0.55
sS'021110022'
p628
F0.5950000000000001
sS'021110020'
p629
F0.5180500000000001
sS'001221010'
p630
F0.414982800773629
sS'001221012'
p631
F0.2438358093182306
sS'011020000'
p632
F0.01436192786273667
sS'011020002'
p633
F0.816788372455
sS'010020000'
p634
F0.06346059017429014
sS'010020001'
p635
F0.10117820161992569
sS'112201122'
p636
F0.1937102445
sS'112201120'
p637
F0.34871446662252203
sS'122020101'
p638
F0.9166140915016672
sS'120010120'
p639
F0.5095000000000001
sS'120010122'
p640
F0.9034293218515004
sS'110010022'
p641
F0.002234032099910116
sS'210022011'
p642
F0.55
sS'001112122'
p643
F1.0
sS'221112021'
p644
F0.5950000000000001
sS'101211022'
p645
F0.156905298045
sS'002001010'
p646
F0.4872258850371216
sS'100110202'
p647
F0.015257757001751337
sS'210001120'
p648
F0.5
sS'210001122'
p649
F0.5
sS'011202000'
p650
F0.5
sS'020002111'
p651
F1.0
sS'020002110'
p652
F0.67195
sS'121222110'
p653
F0.0
sS'102201112'
p654
F0.32761093429510363
sS'220111210'
p655
F1.0
sS'012102210'
p656
F0.5
sS'001202110'
p657
F0.5
sS'010221120'
p658
F0.5
sS'010221121'
p659
F0.0027749793683177664
sS'020101212'
p660
F0.55
sS'020101210'
p661
F0.5
sS'102120121'
p662
F1.0
sS'222110100'
p663
F0.0
sS'110222112'
p664
F0.0
sS'011002021'
p665
F0.5
sS'011002020'
p666
F0.5
sS'000100020'
p667
F0.5156381290920689
sS'000100021'
p668
F0.4845813995002065
sS'021001021'
p669
F1.0
sS'021001020'
p670
F0.704755
sS'022201101'
p671
F0.55
sS'100010022'
p672
F0.8068423086621306
sS'100010020'
p673
F0.5132599156977056
sS'220101201'
p674
F0.5
sS'110022120'
p675
F0.8062897554999999
sS'110022121'
p676
F0.23914845
sS'020100102'
p677
F0.5950000000000001
sS'212111200'
p678
F1.0
sS'012021102'
p679
F0.3350488085690677
sS'001201000'
p680
F0.49987040809999994
sS'022211112'
p681
F6.942366843870668e-62
sS'022211110'
p682
F0.17433922005
sS'120211012'
p683
F4.279961207778792e-05
sS'012000100'
p684
F0.45031049322847105
sS'012000102'
p685
F0.4908783237156015
sS'110022021'
p686
F0.55
sS'001012021'
p687
F0.514
sS'001012020'
p688
F0.55
sS'010002012'
p689
F0.5
sS'010002010'
p690
F0.4962654775143215
sS'202101001'
p691
F0.40950000000000003
sS'202101000'
p692
F0.55
sS'012010021'
p693
F0.4102401083705829
sS'012010020'
p694
F0.4122107719660402
sS'210221211'
p695
F0.0
sS'212210100'
p696
F0.5637762777930264
sS'212210101'
p697
F0.4614383962274805
sS'011122122'
p698
F0.5
sS'121202211'
p699
F0.7342795
sS'220120110'
p700
F0.7608515499999999
sS'220120111'
p701
F1.0
sS'011122120'
p702
F0.495
sS'012020121'
p703
F0.08963241174265467
sS'211000221'
p704
F0.55
sS'020010000'
p705
F0.9261888234062815
sS'020010001'
p706
F0.5
sS'002101102'
p707
F0.5
sS'211110022'
p708
F0.29524500000000004
sS'102012100'
p709
F0.38812050000000003
sS'102012102'
p710
F0.0
sS'212001100'
p711
F0.40393716571447374
sS'212001102'
p712
F0.5
sS'210200011'
p713
F0.5
sS'210200010'
p714
F0.55
sS'100120002'
p715
F0.7342795
sS'110021220'
p716
F0.55
sS'110021221'
p717
F0.45
sS'001011222'
p718
F0.0
sS'001011220'
p719
F0.45
sS'101201220'
p720
F0.5
sS'101201221'
p721
F1.0
sS'121221120'
p722
F0.0
sS'112212100'
p723
F0.45
sS'112212102'
p724
F0.0
sS'200102121'
p725
F0.491710983732405
sS'012001212'
p726
F0.55
sS'201201100'
p727
F0.5
sS'211201102'
p728
F0.45
sS'010222110'
p729
F0.0
sS'211220121'
p730
F0.885616037725195
sS'101122020'
p731
F0.704755
sS'102000102'
p732
F0.82566077995
sS'102000100'
p733
F0.7804637788809481
sS'100221201'
p734
F0.885616037725195
sS'201101212'
p735
F0.5
sS'002121201'
p736
F0.0
sS'002211102'
p737
F0.0033194816500839623
sS'002211100'
p738
F0.2715704997312524
sS'202111201'
p739
F1.0
sS'021011220'
p740
F0.9809239787761527
sS'021011221'
p741
F1.0
sS'010012122'
p742
F0.9862727302663181
sS'112220112'
p743
F0.1937102445
sS'112220110'
p744
F0.00030200797254774906
sS'100200010'
p745
F0.49723316232374654
sS'100200012'
p746
F0.5
sS'110221221'
p747
F0.5
sS'112101222'
p748
F0.0
sS'201202101'
p749
F0.5
sS'000001221'
p750
F0.5
sS'111012202'
p751
F1.0
sS'012211200'
p752
F0.5950000000000001
sS'001120221'
p753
F0.9667412405335567
sS'211102201'
p754
F0.32335452728870506
sS'111220000'
p755
F1.0
sS'102102000'
p756
F0.55
sS'022101201'
p757
F0.5
sS'000011212'
p758
F0.50509
sS'021202011'
p759
F0.5950000000000001
sS'222101001'
p760
F0.0
sS'110000221'
p761
F0.5
sS'110000220'
p762
F0.82566077995
sS'211112221'
p763
F0.0
sS'202110001'
p764
F0.32805000000000006
sS'202110000'
p765
F0.6355000000000001
sS'112202001'
p766
F0.55
sS'121212000'
p767
F0.907348990557408
sS'121212001'
p768
F1.0
sS'100000020'
p769
F0.7107551717116061
sS'100000021'
p770
F0.5
sS'101021202'
p771
F0.8217436173945805
sS'101021200'
p772
F0.7536856354170294
sS'000122121'
p773
F0.8720764813581108
sS'011221102'
p774
F0.12709329141645
sS'102021102'
p775
F0.8139083780440615
sS'102021100'
p776
F0.014905890586729288
sS'102101200'
p777
F0.45
sS'102101202'
p778
F0.55
sS'210211012'
p779
F1.0
sS'000021201'
p780
F0.7608515499999999
sS'120120112'
p781
F1.0
sS'010122001'
p782
F0.33384322794149307
sS'010122000'
p783
F0.540130634073271
sS'000002110'
p784
F0.5131496365683649
sS'000002112'
p785
F0.49531440439282487
sS'111022120'
p786
F1.0
sS'120110220'
p787
F0.8062897554999999
sS'120110221'
p788
F1.0
sS'220111021'
p789
F1.0
sS'020001000'
p790
F0.5915705551373855
sS'020001001'
p791
F0.5
sS'210110220'
p792
F0.5950000000000001
sS'210110221'
p793
F0.1301955642600069
sS'000110221'
p794
F0.5045
sS'000110220'
p795
F0.7823749105
sS'101020002'
p796
F0.7847663949999999
sS'101020000'
p797
F0.05162586124610888
sS'022110112'
p798
F0.0009983390555080172
sS'202100011'
p799
F0.45
sS'202100010'
p800
F0.4959
sS'012122100'
p801
F0.982697526602015
sS'012122101'
p802
F0.529795
sS'001201122'
p803
F0.5
sS'001201120'
p804
F0.5
sS'102022101'
p805
F0.917947133636414
sS'012121102'
p806
F0.201455298045
sS'002012121'
p807
F0.9800748013661464
sS'201002101'
p808
F0.5
sS'201002100'
p809
F0.55
sS'100112220'
p810
F0.7342795
sS'100112221'
p811
F1.0
sS'000020001'
p812
F0.11974354809590036
sS'122111221'
p813
F1.0
sS'221011212'
p814
F0.9995702477721414
sS'200112001'
p815
F0.42285699031060286
sS'200112000'
p816
F0.44756850309705826
sS'012212001'
p817
F0.55
sS'120121002'
p818
F0.55
sS'022101012'
p819
F0.5
sS'212010010'
p820
F1.0
sS'200012101'
p821
F0.509
sS'200012100'
p822
F0.9316242872954315
sS'220101012'
p823
F0.55
sS'220101010'
p824
F0.45
sS'100021201'
p825
F0.32805000000000006
sS'100021200'
p826
F0.6591980326377163
sS'000221121'
p827
F0.7342795
sS'020010211'
p828
F0.3275607280818773
sS'020010210'
p829
F0.35747715760874127
sS'001112220'
p830
F0.48096562319999997
sS'001112221'
p831
F0.3977729892045
sS'002000110'
p832
F0.4998245607436522
sS'002000112'
p833
F0.4944077418611432
sS'211012002'
p834
F0.7608515499999999
sS'211012000'
p835
F0.4995
sS'112000012'
p836
F0.405
sS'010021212'
p837
F0.41452398
sS'121200201'
p838
F0.81847412987905
sS'011020021'
p839
F0.6489317539803132
sS'011020020'
p840
F0.8062897554999999
sS'120201210'
p841
F0.5
sS'120201211'
p842
F0.5
sS'120212010'
p843
F0.55
sS'221120010'
p844
F0.6525562799519506
sS'221120011'
p845
F0.8495653027925403
sS'201012001'
p846
F0.4995
sS'201012000'
p847
F0.55
sS'010110202'
p848
F0.45
sS'221112001'
p849
F0.46029455660473245
sS'020011000'
p850
F0.503645
sS'211120210'
p851
F0.10294556604732451
sS'211120212'
p852
F0.0
sS'000100221'
p853
F0.5
sS'102202110'
p854
F0.55
sS'102202111'
p855
F1.0
sS'210120120'
p856
F0.42659950050000006
sS'200201121'
p857
F0.55
sS'210120121'
p858
F0.0006027933652627035
sS'201121200'
p859
F0.6274000000000001
sS'010221100'
p860
F0.1232998636011892
sS'010221102'
p861
F0.5005
sS'112002100'
p862
F0.405
sS'121122012'
p863
F0.9166140915016672
sS'121122010'
p864
F0.2339367204547167
sS'010200012'
p865
F0.5
sS'010200010'
p866
F0.4999995
sS'101212212'
p867
F0.5950000000000001
sS'110012200'
p868
F0.5
sS'001211022'
p869
F0.7731586811880815
sS'221001112'
p870
F0.405
sS'021121210'
p871
F0.1357878912070143
sS'021121212'
p872
F7.360007727931521e-17
sS'001211020'
p873
F0.6670607913185238
sS'111220210'
p874
F1.0
sS'211102122'
p875
F0.5
sS'212111221'
p876
F1.0
sS'111002212'
p877
F1.0
sS'101202210'
p878
F0.5950000000000001
sS'101202211'
p879
F0.45
sS'211122211'
p880
F0.0
sS'211122210'
p881
F0.03589489938459262
sS'100001212'
p882
F0.47276279051743875
sS'012000121'
p883
F0.5
sS'012000120'
p884
F0.5
sS'110022001'
p885
F0.32805000000000006
sS'110022000'
p886
F0.6856989119089135
sS'011200221'
p887
F0.5
sS'001012002'
p888
F0.9762323599302432
sS'001012000'
p889
F0.50005
sS'120220011'
p890
F0.55
sS'121212211'
p891
F1.0
sS'121212210'
p892
F0.5950000000000001
sS'001112212'
p893
F0.0012715034938433549
sS'202101021'
p894
F0.55
sS'101121022'
p895
F0.45
sS'220100001'
p896
F0.5
sS'012020101'
p897
F0.20501087700427365
sS'012020100'
p898
F0.32458401477596627
sS'010010122'
p899
F0.008325781618296122
sS'020010021'
p900
F0.9409314537689515
sS'200101102'
p901
F0.45
sS'211000201'
p902
F0.45
sS'211000200'
p903
F0.4999905
sS'002101120'
p904
F0.5
sS'002101122'
p905
F0.55
sS'012221001'
p906
F0.05018008011204141
sS'211212112'
p907
F1.0
sS'212000121'
p908
F0.5
sS'002101021'
p909
F0.5
sS'002101020'
p910
F0.55
sS'110021200'
p911
F0.405
sS'011222112'
p912
F0.0
sS'110021202'
p913
F0.55
sS'120111202'
p914
F1.0
sS'100220112'
p915
F0.00835898499109197
sS'001011202'
p916
F0.0018137615168199316
sS'112001122'
p917
F0.5
sS'021120102'
p918
F0.55
sS'021120100'
p919
F0.0026825183398150616
sS'212110012'
p920
F1.0
sS'212010201'
p921
F0.5
sS'101122221'
p922
F0.9994694416940018
sS'112212121'
p923
F1.0
sS'112212120'
p924
F0.5
sS'212211121'
p925
F0.0
sS'212211120'
p926
F0.005387631832152908
sS'221002110'
p927
F0.55
sS'122210110'
p928
F0.45675425858836494
sS'000121021'
p929
F0.31027050000000006
sS'211201122'
p930
F0.67195
sS'211201120'
p931
F0.5367205000000002
sS'201201120'
p932
F0.5
sS'201201121'
p933
F1.0
sS'200102101'
p934
F0.49936564845
sS'200102100'
p935
F0.5003645
sS'122011212'
p936
F0.9845484228086836
sS'122011210'
p937
F0.5411160779949999
sS'201102010'
p938
F0.4995
sS'201102012'
p939
F0.503856160377252
sS'102100120'
p940
F1.0
sS'002211120'
p941
F0.465665260648
sS'002211121'
p942
F0.375630470415
sS'220001011'
p943
F0.5
sS'220001010'
p944
F0.500005
sS'210112200'
p945
F0.6355000000000001
sS'210112201'
p946
F0.12338790170401524
sS'200100001'
p947
F0.46908862031446563
sS'121021002'
p948
F0.004142632844051204
sS'121021000'
p949
F0.006118197731394708
sS'022120110'
p950
F0.7496322400000001
sS'022120111'
p951
F1.0
sS'121121212'
p952
F0.0
sS'111020212'
p953
F1.0
sS'022111210'
p954
F1.0
sS'102200011'
p955
F0.5
sS'102200010'
p956
F0.5005
sS'000001200'
p957
F0.5008709809393314
sS'000001201'
p958
F0.4995
sS'211220100'
p959
F0.478305
sS'211220101'
p960
F0.405
sS'210121120'
p961
F0.2657205
sS'210121122'
p962
F0.0
sS'201022110'
p963
F0.5
sS'201022111'
p964
F1.0
sS'201012112'
p965
F1.0
sS'011202210'
p966
F0.5455
sS'011202211'
p967
F0.405
sS'001120201'
p968
F0.014642933834783696
sS'001120200'
p969
F0.40860985661077454
sS'001202101'
p970
F0.5
sS'022121010'
p971
F0.5
sS'201212211'
p972
F0.0
sS'112112221'
p973
F1.0
sS'112112220'
p974
F0.55
sS'211120020'
p975
F0.42609048711710457
sS'211120021'
p976
F0.30609687327362545
sS'101220112'
p977
F0.0005483456580648645
sS'220201011'
p978
F0.55
sS'100000000'
p979
F0.09446907368341301
sS'100000002'
p980
F0.663508769526683
sS'101021220'
p981
F0.82566077995
sS'101021221'
p982
F1.0
sS'222211011'
p983
F0.0
sS'000122101'
p984
F0.7284251584901524
sS'000122100'
p985
F0.79108759045
sS'011221122'
p986
F0.5
sS'011221120'
p987
F0.5
sS'011210022'
p988
F0.5950000000000001
sS'110202201'
p989
F0.55
sS'010122021'
p990
F0.5
sS'011210020'
p991
F0.5
sS'120101002'
p992
F0.4995
sS'100100020'
p993
F0.4996249562995732
sS'100100022'
p994
F0.55
sS'101202001'
p995
F0.46
sS'101202000'
p996
F0.8062897554999999
sS'111002020'
p997
F1.0
sS'220111000'
p998
F1.0
sS'111022102'
p999
F1.0
sS'001100020'
p1000
F0.49949003097
sS'001100022'
p1001
F0.5
sS'210110200'
p1002
F0.5095000000000001
sS'210110202'
p1003
F0.5950000000000001
sS'211211022'
p1004
F0.9738326183486319
sS'012102021'
p1005
F0.5005
sS'211211020'
p1006
F0.31502697317595
sS'012122121'
p1007
F0.704755
sS'102021120'
p1008
F0.9071345876155131
sS'102021121'
p1009
F0.00038677700507271415
sS'201002121'
p1010
F0.8491469297774019
sS'020211112'
p1011
F0.0007912011662849884
sS'200210112'
p1012
F0.9166140915016672
sS'200210110'
p1013
F0.5
sS'021121020'
p1014
F0.0
sS'221012010'
p1015
F0.55
sS'221012011'
p1016
F0.5
sS'122111200'
p1017
F1.0
sS'210212011'
p1018
F1.0
sS'021012201'
p1019
F0.8587852317595001
sS'122201112'
p1020
F0.32805000000000006
sS'122201110'
p1021
F0.495
sS'211101022'
p1022
F0.405
sS'120211200'
p1023
F0.5950000000000001
sS'120211201'
p1024
F1.0
sS'102002001'
p1025
F0.7847663949999999
sS'001201102'
p1026
F0.4882155988030695
sS'001112022'
p1027
F0.9091000817831797
sS'200012121'
p1028
F0.853162736776795
sS'000221101'
p1029
F0.61472653264
sS'000221100'
p1030
F0.46841897583356645
sS'011212002'
p1031
F0.55
sS'022102110'
p1032
F0.5
sS'022102111'
p1033
F1.0
sS'021210210'
p1034
F0.40573844766262857
sS'021210211'
p1035
F0.2657205
sS'021101220'
p1036
F0.55
sS'021101221'
p1037
F1.0
sS'212200101'
p1038
F0.55
sS'210011220'
p1039
F0.55
sS'210011221'
p1040
F0.20974901604732452
sS'211012020'
p1041
F0.5
sS'211012021'
p1042
F0.31398493531005
sS'201102201'
p1043
F0.490005369
sS'000112000'
p1044
F0.4286747219161615
sS'000112002'
p1045
F0.0548651278922363
sS'000110022'
p1046
F0.9860935805278153
sS'201020011'
p1047
F0.6097664756637544
sS'201020010'
p1048
F0.5441240195775758
sS'121000102'
p1049
F0.7691823158988786
sS'201012021'
p1050
F0.9749661327045307
sS'212012121'
p1051
F0.114383962274805
sS'010212021'
p1052
F0.55
sS'010110220'
p1053
F0.29524500000000004
sS'010110222'
p1054
F0.0
sS'021021112'
p1055
F0.0003901897522922113
sS'210100021'
p1056
F0.498727708605
sS'210100020'
p1057
F0.49993812
sS'200000110'
p1058
F0.7652337385155882
sS'200000112'
p1059
F0.7725479482881448
sS'100000221'
p1060
F0.707816395
sS'001021201'
p1061
F1.0
sS'001021200'
p1062
F0.8548658632388844
sS'000210112'
p1063
F0.5
sS'012111220'
p1064
F1.0
sS'002121012'
p1065
F0.47077592445
sS'002121010'
p1066
F0.008618172776766242
sS'111200212'
p1067
F1.0
sS'200201101'
p1068
F0.5
sS'200201100'
p1069
F0.5005
sS'010211220'
p1070
F0.5
sS'010211221'
p1071
F0.5
sS'121021212'
p1072
F0.0028632084485111734
sS'121021210'
p1073
F0.1072070415865441
sS'100200201'
p1074
F0.7014745
sS'112020102'
p1075
F0.82566077995
sS'112020100'
p1076
F0.0037724640377994004
sS'121121002'
p1077
F0.007674987847841237
sS'211202001'
p1078
F0.5
sS'001210212'
p1079
F0.9802286685376222
sS'222011100'
p1080
F0.0
sS'022101010'
p1081
F0.45
sS'000100200'
p1082
F0.49106109143883503
sS'000100201'
p1083
F0.37940159730674755
sS'102201021'
p1084
F0.5
sS'112021212'
p1085
F0.0
sS'221021112'
p1086
F0.0
sS'221021110'
p1087
F0.405
sS'201112120'
p1088
F1.0
sS'001210102'
p1089
F1.0
sS'112002102'
p1090
F0.0
sS'202110210'
p1091
F0.55
sS'202110211'
p1092
F0.45
sS'101212210'
p1093
F0.505
sS'022000011'
p1094
F0.5950000000000001
sS'120012210'
p1095
F0.5726443722415696
sS'120012211'
p1096
F1.0
sS'011200201'
p1097
F0.5
sS'011200200'
p1098
F0.5
sS'020200111'
p1099
F1.0
sS'020200110'
p1100
F0.545
sS'011012022'
p1101
F0.67195
sS'111102202'
p1102
F1.0
sS'010201212'
p1103
F0.5
sS'011012020'
p1104
F0.5
sS'010201210'
p1105
F0.5
sS'110221102'
p1106
F0.09418090114491673
sS'101020212'
p1107
F0.87290670858355
sS'101020210'
p1108
F0.29018692357131926
sS'000212211'
p1109
F0.5
sS'212212101'
p1110
F0.5950000000000001
sS'200101120'
p1111
F0.5
sS'221002111'
p1112
F1.0
sS'200101122'
p1113
F0.55
sS'122210112'
p1114
F0.054709494565756175
sS'122012010'
p1115
F0.55
sS'122012011'
p1116
F1.0
sS'000120201'
p1117
F0.027944236644015907
sS'202010112'
p1118
F0.9166140915016672
sS'202010110'
p1119
F0.36450000000000005
sS'212000101'
p1120
F0.4960589008988837
sS'212000100'
p1121
F0.5
sS'002101002'
p1122
F0.5950000000000001
sS'002101000'
p1123
F0.45389275885371094
sS'120111220'
p1124
F1.0
sS'021120120'
p1125
F0.0
sS'112210120'
p1126
F0.3316958029145092
sS'112210122'
p1127
F0.015451577191316302
sS'222121110'
p1128
F0.0
sS'101122200'
p1129
F0.7342795
sS'101122201'
p1130
F0.0002508653253067988
sS'212211102'
p1131
F0.99742311239634
sS'212211100'
p1132
F0.21611179692665872
sS'011122012'
p1133
F0.45
sS'202112211'
p1134
F0.67195
sS'000020211'
p1135
F0.022823420915546837
sS'000121002'
p1136
F0.4228721486047007
sS'210122100'
p1137
F0.05138932126579648
sS'000121000'
p1138
F0.045700897162252944
sS'200112211'
p1139
F0.12248307441489521
sS'011001222'
p1140
F0.0
sS'000201112'
p1141
F0.5
sS'121011220'
p1142
F0.5
sS'200112210'
p1143
F0.5950000000000001
sS'010202001'
p1144
F0.50171
sS'112122000'
p1145
F0.87290670858355
sS'112122001'
p1146
F0.23016024449999997
sS'210021001'
p1147
F0.29872841987351506
sS'210021000'
p1148
F0.4170843797243095
sS'101210212'
p1149
F0.405000005544105
sS'210112221'
p1150
F0.001369463724976704
sS'121021020'
p1151
F0.0
sS'100021012'
p1152
F0.008952917890354236
sS'121102212'
p1153
F0.36450000000000005
sS'121102210'
p1154
F0.28976309462850613
sS'100122021'
p1155
F0.55
sS'010220011'
p1156
F0.03782300852527403
sS'010220010'
p1157
F0.030616041065371875
sS'011212210'
p1158
F1.0
sS'212120001'
p1159
F0.12941286742029143
sS'202111021'
p1160
F1.0
sS'021002211'
p1161
F0.49459491
sS'201100122'
p1162
F0.5
sS'201100120'
p1163
F0.5
sS'001202121'
p1164
F0.55
sS'121200012'
p1165
F0.5
sS'121200010'
p1166
F0.5
sS'122120211'
p1167
F0.0
sS'021000211'
p1168
F0.49995
sS'021000210'
p1169
F0.5010060276899999
sS'001101202'
p1170
F0.45
sS'000021021'
p1171
F0.8683333319157629
sS'111200020'
p1172
F1.0
sS'110112202'
p1173
F0.08338590849833284
sS'022001121'
p1174
F0.5
sS'110122210'
p1175
F0.156905298045
sS'110122212'
p1176
F0.5
sS'011120020'
p1177
F0.48831278247900844
sS'010122102'
p1178
F0.9653469836604734
sS'200120110'
p1179
F0.004937377524475794
sS'122101210'
p1180
F0.45
sS'200120112'
p1181
F0.0
sS'122101212'
p1182
F0.67195
sS'120101020'
p1183
F0.5
sS'120101022'
p1184
F0.5455
sS'012011212'
p1185
F1.0
sS'112112202'
p1186
F0.0
sS'112112200'
p1187
F0.23914845
sS'211120000'
p1188
F0.030532374183796635
sS'211120002'
p1189
F0.0
sS'211121200'
p1190
F0.10294556604732451
sS'211121202'
p1191
F0.0
sS'221111212'
p1192
F1.0
sS'001100002'
p1193
F0.49999550000000004
sS'120101122'
p1194
F1.0
sS'100001221'
p1195
F0.5135500000000001
sS'100001220'
p1196
F0.5005
sS'201000121'
p1197
F0.7829976995983513
sS'201000120'
p1198
F0.5950000000000001
sS'101000221'
p1199
F0.5
sS'101000220'
p1200
F0.7847663949999999
sS'011021002'
p1201
F0.023706153684379373
sS'212011102'
p1202
F0.5
sS'202001110'
p1203
F0.405
sS'202001112'
p1204
F0.5
sS'121002000'
p1205
F0.7901729488305019
sS'021121000'
p1206
F0.0163201647625083
sS'021121002'
p1207
F0.3864832763536231
sS'021020211'
p1208
F0.776813073969246
sS'002110000'
p1209
F0.43657043591767536
sS'002110002'
p1210
F0.7975005951930214
sS'111002002'
p1211
F1.0
sS'211021210'
p1212
F0.114383962274805
sS'211021212'
p1213
F0.0
sS'110022210'
p1214
F0.5
sS'110022211'
p1215
F0.29524500000000004
sS'001012212'
p1216
F0.9887358002275304
sS'001012210'
p1217
F0.49974481628999995
sS'101212021'
p1218
F1.0
sS'211011022'
p1219
F0.43512897554999996
sS'101022112'
p1220
F0.23914845
sS'210221110'
p1221
F0.32805000000000006
sS'210221112'
p1222
F0.0
sS'211012221'
p1223
F0.12709329141645
sS'011212020'
p1224
F0.5
sS'011212021'
p1225
F0.5
sS'020212110'
p1226
F0.87290670858355
sS'020212111'
p1227
F1.0
sS'021101202'
p1228
F0.5
sS'221100102'
p1229
F0.5
sS'221100100'
p1230
F0.4995
sS'112021200'
p1231
F0.0
sS'021102010'
p1232
F0.49995
sS'021102012'
p1233
F0.5
sS'221121010'
p1234
F0.2716254
sS'221121012'
p1235
F0.0
sS'220010121'
p1236
F0.55
sS'200021001'
p1237
F0.9025901132935024
sS'202112001'
p1238
F0.2649518446803779
sS'000112021'
p1239
F0.49812512117400004
sS'000112020'
p1240
F0.5727332761397417
sS'221010121'
p1241
F1.0
sS'021210112'
p1242
F1.0
sS'201121122'
p1243
F0.0
sS'210020011'
p1244
F0.2940146470079159
sS'210020010'
p1245
F0.4206328895545399
sS'010212001'
p1246
F0.507695
sS'010212000'
p1247
F0.668305
sS'121022010'
p1248
F0.37051464881170587
sS'121022011'
p1249
F0.2657205
sS'201110212'
p1250
F0.6029833957129176
sS'021022101'
p1251
F0.67195
sS'100020000'
p1252
F0.07453483120864982
sS'100020001'
p1253
F0.029920836571527765
sS'210100002'
p1254
F0.5
sS'210100000'
p1255
F0.4777362684811293
sS'020011122'
p1256
F0.6269500000000001
sS'020011120'
p1257
F0.5
sS'210011200'
p1258
F0.45
sS'210011202'
p1259
F0.5
sS'220210110'
p1260
F0.885616037725195
sS'220210111'
p1261
F1.0
sS'020001201'
p1262
F0.55
sS'100011022'
p1263
F0.29524500000000004
sS'210110122'
p1264
F0.514
sS'012111202'
p1265
F1.0
sS'212012100'
p1266
F0.55
sS'212012101'
p1267
F0.4656905298045
sS'121000122'
p1268
F0.793094701955
sS'012201112'
p1269
F0.3477367682180975
sS'122021211'
p1270
F0.0
sS'010211200'
p1271
F0.27471024450000003
sS'010211202'
p1272
F0.8071722586932527
sS'201221112'
p1273
F0.0
sS'201221110'
p1274
F0.5
sS'121121022'
p1275
F0.0
sS'112020120'
p1276
F0.82566077995
sS'112020121'
p1277
F0.04748623999915595
sS'022010101'
p1278
F0.45
sS'022010100'
p1279
F0.503065
sS'000211221'
p1280
F0.5
sS'201112102'
p1281
F1.0
sS'111122212'
p1282
F1.0
sS'001210120'
p1283
F1.0
sS'112002120'
p1284
F0.55
sS'112002121'
p1285
F0.5
sS'012121002'
p1286
F0.47391484500000003
sS'021101200'
p1287
F0.5
sS'110221122'
p1288
F0.704755
sS'110221120'
p1289
F0.17249765865218153
sS'111102220'
p1290
F1.0
sS'020112010'
p1291
F0.46240851513820397
sS'020112012'
p1292
F0.0009355019428439926
sS'120012112'
p1293
F0.3714255
sS'111221122'
p1294
F1.0
sS'102220101'
p1295
F0.9233828540100304
sS'000020100'
p1296
F0.0824653643601733
sS'000020101'
p1297
F0.06867935387282549
sS'121002120'
p1298
F0.5
sS'121002121'
p1299
F0.5
sS'221111002'
p1300
F1.0
sS'212102001'
p1301
F0.500405
sS'112100220'
p1302
F0.41513030932905
sS'112100221'
p1303
F0.31391550000000007
sS'112210102'
p1304
F0.17433922005
sS'001022101'
p1305
F0.0023370222384524143
sS'001022100'
p1306
F0.40575698647623154
sS'002002111'
p1307
F1.0
sS'002002110'
p1308
F0.5950000000000001
sS'021200211'
p1309
F0.55
sS'220021011'
p1310
F0.7608515499999999
sS'112001221'
p1311
F0.5
sS'210122121'
p1312
F1.457478322630108e-47
sS'011021212'
p1313
F0.11008493144759204
sS'210112020'
p1314
F0.34004940204181544
sS'210112021'
p1315
F0.2517451734569453
sS'021012012'
p1316
F0.9365865476834653
sS'021012010'
p1317
F0.4929545173518866
sS'212021101'
p1318
F0.07596846711981975
sS'112122021'
p1319
F0.6355000000000001
sS'210021021'
p1320
F0.6355000000000001
sS'120002211'
p1321
F0.55
sS'201001122'
p1322
F0.55
sS'210000112'
p1323
F0.405
sS'120201112'
p1324
F0.2870032699204019
sS'120102021'
p1325
F0.5
sS'100122001'
p1326
F0.3572826142820522
sS'100122000'
p1327
F0.87290670858355
sS'010012210'
p1328
F1.0
sS'122010120'
p1329
F0.6355000000000001
sS'122010121'
p1330
F1.0
sS'202111000'
p1331
F1.0
sS'120020121'
p1332
F0.0
sS'021102201'
p1333
F0.49349736
sS'020221101'
p1334
F0.7608515499999999
sS'220112010'
p1335
F0.353274819571368
sS'220112011'
p1336
F0.29524500000000004
sS'102010021'
p1337
F1.0
sS'102010020'
p1338
F0.5950000000000001
sS'201100102'
p1339
F0.45
sS'211010122'
p1340
F1.0
sS'211210002'
p1341
F0.7312163949999999
sS'211210000'
p1342
F0.45
sS'012210112'
p1343
F1.0
sS'102001210'
p1344
F0.45
sS'102001212'
p1345
F0.5
sS'012012010'
p1346
F1.0
sS'200021211'
p1347
F0.7342795
sS'202210101'
p1348
F0.8587852317595001
sS'020121001'
p1349
F0.32805000000000006
sS'100012012'
p1350
F0.5
sS'102102201'
p1351
F0.55
sS'001101220'
p1352
F0.5
sS'001101222'
p1353
F0.0
sS'000021000'
p1354
F0.06632495719222409
sS'000021001'
p1355
F0.03516365084964482
sS'111200002'
p1356
F1.0
sS'110112222'
p1357
F0.0
sS'110112220'
p1358
F0.16759329141645
sS'020110221'
p1359
F0.55
sS'110102212'
p1360
F0.45
sS'201110022'
p1361
F0.6355000000000001
sS'200221110'
p1362
F0.55
sS'200221111'
p1363
F1.0
sS'022001101'
p1364
F0.45
sS'022001100'
p1365
F0.5005
sS'000000112'
p1366
F0.4495307911468656
sS'201122010'
p1367
F0.22463270247725392
sS'201122011'
p1368
F0.05015896933085583
sS'001021012'
p1369
F0.01896084675100333
sS'221101200'
p1370
F0.5950000000000001
sS'221101201'
p1371
F1.0
sS'202100211'
p1372
F0.5
sS'211121221'
p1373
F1.0
sS'211121220'
p1374
F0.5
sS'111201202'
p1375
F1.0
sS'122021001'
p1376
F0.4779
sS'201000102'
p1377
F0.55
sS'201000100'
p1378
F0.5026405041099999
sS'211010202'
p1379
F0.8062897554999999
sS'211010200'
p1380
F0.36450000000000005
sS'211100002'
p1381
F0.405
sS'101000202'
p1382
F0.704755
sS'101000200'
p1383
F0.634414315815164
sS'011021020'
p1384
F0.5776162700500002
sS'011021022'
p1385
F0.67195
sS'122100010'
p1386
F0.50405
sS'122100012'
p1387
F0.55
sS'200110000'
p1388
F0.4786580071573305
sS'200110002'
p1389
F0.9527728244678143
sS'011102212'
p1390
F0.5095000000000001
sS'002110021'
p1391
F0.5
sS'002110020'
p1392
F0.5805454193457239
sS'222011211'
p1393
F0.0
sS'120000112'
p1394
F0.47632252734229763
sS'111122002'
p1395
F1.0
sS'221110012'
p1396
F0.5694733933952676
sS'101212000'
p1397
F0.5
sS'101212002'
p1398
F0.907348990557408
sS'011200012'
p1399
F0.5
sS'012120210'
p1400
F0.0
sS'211012200'
p1401
F0.5455
sS'211012201'
p1402
F0.36450000000000005
sS'200212011'
p1403
F0.55
sS'102211120'
p1404
F0.3721449483064706
sS'102211122'
p1405
F2.4938471739279754e-12
sS'210101220'
p1406
F0.55
sS'210101221'
p1407
F0.5
sS'221100120'
p1408
F0.55
sS'221100121'
p1409
F0.5
sS'012202110'
p1410
F0.5
sS'012202111'
p1411
F1.0
sS'002120011'
p1412
F0.45
sS'002120010'
p1413
F0.5359319972522123
sS'112021221'
p1414
F0.0
sS'020112201'
p1415
F0.55
sS'112201210'
p1416
F0.45
sS'112201212'
p1417
F0.5950000000000001
sS'001000200'
p1418
F0.5944470674359091
sS'001000201'
p1419
F0.5
sS'100100002'
p1420
F0.49679399746496805
sS'221010100'
p1421
F1.0
sS'210201112'
p1422
F0.45
sS'012101212'
p1423
F0.5
sS'112221121'
p1424
F0.0
sS'112221120'
p1425
F5.294647629025492e-11
sS'000010210'
p1426
F0.4010695095840585
sS'000010212'
p1427
F0.9956155538526491
sS'120210112'
p1428
F0.27309818402365105
sS'211020010'
p1429
F0.005659851651554471
sS'211020012'
p1430
F0.0
sS'200010000'
p1431
F0.48634964048026336
sS'200010001'
p1432
F0.47168258119473727
sS'021020121'
p1433
F0.0
sS'122000211'
p1434
F0.5459499999999999
sS'221201100'
p1435
F0.5950000000000001
sS'221201101'
p1436
F1.0
sS'110121220'
p1437
F0.29524500000000004
sS'110121222'
p1438
F0.0
sS'022100011'
p1439
F0.5
sS'022100010'
p1440
F0.50045
sS'100020021'
p1441
F0.442485543028534
sS'210012112'
p1442
F1.0
sS'220121010'
p1443
F0.427990311161595
sS'220121011'
p1444
F0.331695
sS'121101202'
p1445
F0.32805000000000006
sS'101202021'
p1446
F0.5
sS'002010121'
p1447
F0.5
sS'002010120'
p1448
F0.5
sS'020011102'
p1449
F0.5577473492111351
sS'202201101'
p1450
F0.55
sS'101212020'
p1451
F0.55
sS'212120211'
p1452
F0.0
sS'120100002'
p1453
F0.67195
sS'101012212'
p1454
F0.35783493384757037
sS'122001102'
p1455
F0.55
sS'122001100'
p1456
F0.5045
sS'021002001'
p1457
F0.7373168235268072
sS'001002112'
p1458
F0.47436297984045
sS'022010121'
p1459
F0.55
sS'102001000'
p1460
F0.4235228152600635
sS'122002101'
p1461
F0.5
sS'102001002'
p1462
F0.5
sS'002020111'
p1463
F1.0
sS'002020110'
p1464
F0.8169673761962556
sS'012012201'
p1465
F0.5
sS'201212110'
p1466
F1.0
sS'000211201'
p1467
F0.2657205
sS'000211200'
p1468
F0.3353694247753485
sS'110000122'
p1469
F0.5
sS'100100212'
p1470
F0.49729336130251933
sS'212100120'
p1471
F0.5
sS'201100020'
p1472
F0.5026149999999999
sS'211000000'
p1473
F0.36712330456498876
sS'211000002'
p1474
F0.596864867759604
sS'122001010'
p1475
F0.49960650137699025
sS'000120021'
p1476
F0.3437257898976301
sS'121020120'
p1477
F0.0
sS'211112002'
p1478
F0.5
sS'020120110'
p1479
F0.6626910231045242
sS'020120112'
p1480
F0.766626363457236
sS'211100212'
p1481
F0.45
sS'112121020'
p1482
F0.12709329141645
sS'112121022'
p1483
F0.55
sS'011022010'
p1484
F0.40950000000000003
sS'011022012'
p1485
F0.5950000000000001
sS'120220110'
p1486
F0.704755
sS'120220111'
p1487
F1.0
sS'121221211'
p1488
F1.0
sS'121221210'
p1489
F0.82566077995
sS'000012112'
p1490
F0.36450000000000005
sS'201011212'
p1491
F0.41597549999999994
sS'222010101'
p1492
F0.0
sS'221111020'
p1493
F1.0
sS'112100200'
p1494
F0.448731036945
sS'112100202'
p1495
F0.5
sS'002201001'
p1496
F0.4999271
sS'110012122'
p1497
F0.5
sS'101020221'
p1498
F0.8970544339526756
sS'001022121'
p1499
F0.5
sS'011000122'
p1500
F0.5
sS'100002121'
p1501
F0.5
sS'100002120'
p1502
F0.7612897555
sS'021201012'
p1503
F0.49408785
sS'020000101'
p1504
F0.5
sS'012021210'
p1505
F0.0
sS'112001200'
p1506
F0.45
sS'112001202'
p1507
F0.5
sS'121201012'
p1508
F0.40770426413246985
sS'110201122'
p1509
F0.5
sS'011121022'
p1510
F0.45
sS'121002100'
p1511
F0.5
sS'121002102'
p1512
F0.843094701955
sS'112201020'
p1513
F0.49572
sS'112201021'
p1514
F0.43089646905982626
sS'212021121'
p1515
F7.375208901265433e-10
sS'001000012'
p1516
F0.43105129431052197
sS'012002121'
p1517
F0.5
sS'211002112'
p1518
F0.5
sS'021122211'
p1519
F2.1478998321508656e-08
sS'120102001'
p1520
F0.5
sS'120102000'
p1521
F0.67195
sS'122010100'
p1522
F0.5257450000000001
sS'221210011'
p1523
F0.5
sS'122010102'
p1524
F0.8299026952557593
sS'102011202'
p1525
F0.6842795
sS'102011200'
p1526
F0.5095000000000001
sS'210112000'
p1527
F0.4237956002375718
sS'210112002'
p1528
F0.668305
sS'001101022'
p1529
F0.5
sS'211210020'
p1530
F0.5
sS'211210021'
p1531
F0.36450000000000005
sS'020110102'
p1532
F0.5180500000000001
sS'001120000'
p1533
F0.05336883284788139
sS'001120002'
p1534
F0.521329363658321
sS'011002122'
p1535
F0.5
sS'011002120'
p1536
F0.5
sS'120021102'
p1537
F0.5950000000000001
sS'120202111'
p1538
F1.0
sS'120021100'
p1539
F0.029956587409039302
sS'020110201'
p1540
F0.5
sS'020110200'
p1541
F0.6355000000000001
sS'000022011'
p1542
F0.9601167784615637
sS'201110002'
p1543
F0.53562295
sS'022210101'
p1544
F0.495
sS'020012101'
p1545
F0.5
sS'020012100'
p1546
F0.9278534897386387
sS'210100212'
p1547
F0.55
sS'210100210'
p1548
F0.4995
sS'102010002'
p1549
F0.2604003739113916
sS'102010000'
p1550
F0.412483498488614
sS'212122111'
p1551
F1.0
sS'212122110'
p1552
F0.9452905054342439
sS'222001101'
p1553
F0.0
sS'220011021'
p1554
F0.55
sS'220102011'
p1555
F0.55
sS'100120221'
p1556
F0.37496475897423576
sS'100010122'
p1557
F0.8577829039735932
sS'021001122'
p1558
F0.55
sS'021001120'
p1559
F0.45
sS'111201220'
p1560
F1.0
sS'001222011'
p1561
F0.0
sS'020020111'
p1562
F1.0
sS'020020110'
p1563
F0.7864786944978874
sS'211010220'
p1564
F0.349885767205787
sS'211010221'
p1565
F0.12709329141645
sS'010002211'
p1566
F0.5
sS'010002210'
p1567
F0.5
sS'211100020'
p1568
F0.49409825172717287
sS'211100022'
p1569
F0.486
sS'010102021'
p1570
F0.5
sS'010102020'
p1571
F0.5
sS'200110021'
p1572
F0.502144448959
sS'200110020'
p1573
F0.67195
sS'200121201'
p1574
F0.55
sS'101120122'
p1575
F1.0
sS'012010122'
p1576
F0.002199334870623861
sS'012010120'
p1577
F0.34717448678828144
sS'120001221'
p1578
F0.5950000000000001
sS'201011020'
p1579
F0.5
sS'111122020'
p1580
F1.0
sS'201200112'
p1581
F0.5
sS'201200110'
p1582
F0.5
sS'211222110'
p1583
F0.0
sS'102212100'
p1584
F0.67195
sS'102212101'
p1585
F1.0
sS'102211102'
p1586
F0.0013367117421474882
sS'021200001'
p1587
F0.748316395
sS'110220021'
p1588
F0.67195
sS'020102211'
p1589
F0.5
sS'001000221'
p1590
F0.55
sS'002210112'
p1591
F0.9718398751322425
sS'002210110'
p1592
F0.9533198221630701
sS'112222101'
p1593
F0.0
sS'112221102'
p1594
F0.0028632084485111734
sS'112221100'
p1595
F4.514097400800866e-05
sS'001112002'
p1596
F0.0455132728427859
sS'202010211'
p1597
F0.67195
sS'101100022'
p1598
F0.45
sS'121120002'
p1599
F0.6882504780397805
sS'121120000'
p1600
F0.0036016385666399696
sS'200010021'
p1601
F0.9175028064699811
sS'002201211'
p1602
F0.501842795
sS'212102211'
p1603
F0.67195
sS'121210102'
p1604
F1.0
sS'000102112'
p1605
F0.45
sS'012021000'
p1606
F0.030242812312405335
sS'200010121'
p1607
F0.4860962711537625
sS'200010120'
p1608
F0.55
sS'002010102'
p1609
F0.028957856670694955
sS'002010100'
p1610
F0.2866552572982348
sS'121101222'
p1611
F0.0
sS'121101220'
p1612
F0.5
sS'112200010'
p1613
F0.4995
sS'112200012'
p1614
F0.55
sS'112010122'
p1615
F0.0007502811214273738
sS'101221120'
p1616
F0.11656585444259206
sS'101221122'
p1617
F0.67195
sS'000201211'
p1618
F0.45
sS'000201210'
p1619
F0.5
sS'020101102'
p1620
F0.5
sS'120002110'
p1621
F0.5
sS'012100012'
p1622
F0.45
sS'122001120'
p1623
F0.5950000000000001
sS'122001121'
p1624
F0.5
sS'221011120'
p1625
F1.0
sS'200112112'
p1626
F0.405
sS'102000211'
p1627
F0.45
sS'102000210'
p1628
F0.5014
sS'110121202'
p1629
F0.156905298045
sS'220000111'
p1630
F1.0
sS'220000110'
p1631
F0.7706607799499999
sS'021122001'
p1632
F0.3295505131112318
sS'120121102'
p1633
F1.0
sS'210101202'
p1634
F0.5
sS'100122210'
p1635
F0.26607404013405556
sS'100122211'
p1636
F0.08775664679014455
sS'210101200'
p1637
F0.5
sS'012110212'
p1638
F1.0
sS'011122000'
p1639
F0.4854814989327
sS'022111102'
p1640
F1.0
sS'011122002'
p1641
F0.5
sS'102001021'
p1642
F0.5
sS'102001020'
p1643
F0.5
sS'010122201'
p1644
F0.19912461522612893
sS'102020112'
p1645
F0.67195
sS'202021011'
p1646
F0.7847663949999999
sS'211000021'
p1647
F0.49662641916972
sS'211000020'
p1648
F0.499905
sS'000120000'
p1649
F0.0818523968339407
sS'000120001'
p1650
F0.0479267623833536
sS'121020100'
p1651
F0.004251826517554886
sS'121020102'
p1652
F0.8648778158419449
sS'122112012'
p1653
F0.0
sS'122110012'
p1654
F0.136211874226276
sS'012000211'
p1655
F0.45
sS'210102112'
p1656
F0.405
sS'122112010'
p1657
F0.5
sS'211112022'
p1658
F0.5950000000000001
sS'112120200'
p1659
F0.0
sS'211112020'
p1660
F0.2523882718014544
sS'112121002'
p1661
F0.12709329141645
sS'110202102'
p1662
F0.5
sS'121220001'
p1663
F0.7342795
sS'121202100'
p1664
F0.5
sS'000212010'
p1665
F0.7342795
sS'100211122'
p1666
F0.18727092280601065
sS'212112000'
p1667
F0.55
sS'212112001'
p1668
F0.18259362361508852
sS'012001102'
p1669
F0.4711901832024534
sS'211201212'
p1670
F0.0
sS'222112011'
p1671
F0.0
sS'021211002'
p1672
F0.894441541374729
sS'021211000'
p1673
F0.514
sS'112022211'
p1674
F0.0
sS'022012011'
p1675
F0.5
sS'021012000'
p1676
F0.9573219852356555
sS'201010012'
p1677
F0.505
sS'212001210'
p1678
F0.5
sS'110220102'
p1679
F0.7999669513967125
sS'211122121'
p1680
F0.0
sS'211122120'
p1681
F0.23914845
sS'112000210'
p1682
F0.36450000000000005
sS'112000212'
p1683
F0.55
sS'012002100'
p1684
F0.5
sS'021110202'
p1685
F0.7072554745615084
sS'021110200'
p1686
F0.5087599436861089
sS'100002102'
p1687
F0.78921077995
sS'100002100'
p1688
F0.499352725
sS'020000121'
p1689
F0.5
sS'100221112'
p1690
F0.0001787628513268815
sS'001020010'
p1691
F0.01789343561968263
sS'001020012'
p1692
F0.02062507121378283
sS'022112010'
p1693
F0.5
sS'022112011'
p1694
F0.5
sS'001221112'
p1695
F0.12709329141645
sS'011020122'
p1696
F0.5
sS'011020120'
p1697
F0.45620982647459996
sS'102011220'
p1698
F0.5950000000000001
sS'102011221'
p1699
F1.0
sS'200211012'
p1700
F0.953503495696341
sS'112201000'
p1701
F0.4990981779
sS'112201002'
p1702
F0.4811056641
sS'112200201'
p1703
F0.55
sS'212100201'
p1704
F0.5
sS'101002020'
p1705
F0.8062897554999999
sS'110020122'
p1706
F0.82566077995
sS'210202110'
p1707
F0.5
sS'210202111'
p1708
F1.0
sS'011220021'
p1709
F0.7608515499999999
sS'010220110'
p1710
F0.006502787609627398
sS'110020120'
p1711
F0.7170199547010474
sS'010220112'
p1712
F0.47207205
sS'021221100'
p1713
F0.67195
sS'021221101'
p1714
F1.0
sS'011221210'
p1715
F0.2657205
sS'011221212'
p1716
F0.55
sS'121120212'
p1717
F8.304252640116698e-16
sS'121120210'
p1718
F0.00023907873949193504
sS'001120021'
p1719
F0.29524500000000004
sS'001120020'
p1720
F0.4951388857444637
sS'120021120'
p1721
F0.0
sS'122101012'
p1722
F0.52615
sS'020012121'
p1723
F0.8587852317595001
sS'210120210'
p1724
F0.452709
sS'210120211'
p1725
F0.0011815081239578515
sS'122120010'
p1726
F0.5950000000000001
sS'122120011'
p1727
F0.5
sS'001100200'
p1728
F0.47752296085944923
sS'001100202'
p1729
F0.5
sS'210001200'
p1730
F0.5
sS'220011001'
p1731
F0.45
sS'220011000'
p1732
F0.55
sS'020201121'
p1733
F0.5
sS'012022110'
p1734
F0.7608515499999999
sS'012022111'
p1735
F1.0
sS'011002102'
p1736
F0.5
sS'000211012'
p1737
F0.06001203405652603
sS'100120201'
p1738
F0.015449936638739621
sS'100120200'
p1739
F0.026772066549717824
sS'100202101'
p1740
F0.32805000000000006
sS'100202100'
p1741
F0.502804945
sS'200100112'
p1742
F0.38029500000000005
sS'010022211'
p1743
F0.5
sS'021010021'
p1744
F0.505
sS'021010020'
p1745
F0.9508785027558787
sS'110221200'
p1746
F0.55
sS'110221201'
p1747
F0.5
sS'112120012'
p1748
F0.0675425858836496
sS'012000021'
p1749
F0.5
sS'010102002'
p1750
F0.5
sS'010102000'
p1751
F0.49970205072446466
sS'100212100'
p1752
F0.53521795
sS'200012211'
p1753
F0.5
sS'121002010'
p1754
F0.499016385
sS'210002110'
p1755
F0.5
sS'012010102'
p1756
F0.003459113294993485
sS'202101120'
p1757
F0.5
sS'202101121'
p1758
F0.5
sS'220120011'
p1759
F0.9322814565832234
sS'212112211'
p1760
F1.0
sS'200002101'
p1761
F0.7342795
sS'000100120'
p1762
F0.5
sS'121012200'
p1763
F0.8547518146782869
sS'121012201'
p1764
F1.0
sS'220012110'
p1765
F0.87290670858355
sS'220012111'
p1766
F1.0
sS'112022001'
p1767
F0.3489941266656396
sS'110220001'
p1768
F0.001232035995284215
sS'110220000'
p1769
F0.8510939069257234
sS'010202110'
p1770
F0.5
sS'111212020'
p1771
F1.0
sS'010202112'
p1772
F0.5
sS'002201110'
p1773
F0.498441635235
sS'002201112'
p1774
F0.47842703582361085
sS'101202112'
p1775
F0.5
sS'210020211'
p1776
F0.1772291640345658
sS'121221000'
p1777
F0.8294766255245924
sS'121221001'
p1778
F1.0
sS'120001201'
p1779
F0.5
sS'120001200'
p1780
F0.5014
sS'201011002'
p1781
F0.8479727636661579
sS'201010201'
p1782
F0.29063697317595
sS'201010200'
p1783
F0.44216114679720814
sS'110210122'
p1784
F0.3683022375824415
sS'100020201'
p1785
F0.7092892635667545
sS'221012101'
p1786
F1.0
sS'100212001'
p1787
F1.0
sS'100212000'
p1788
F0.5950000000000001
sS'121022211'
p1789
F0.008211601634130327
sS'121120020'
p1790
F0.0
sS'120122101'
p1791
F1.0
sS'121210120'
p1792
F1.0
sS'220110021'
p1793
F0.55
sS'211201020'
p1794
F0.55
sS'211201021'
p1795
F1.0
sS'010222011'
p1796
F0.0
sS'210000211'
p1797
F0.5
sS'210000210'
p1798
F0.55
sS'202102110'
p1799
F0.55
sS'202102111'
p1800
F1.0
sS'221200101'
p1801
F0.55
sS'200010102'
p1802
F0.9265286954563918
sS'200010100'
p1803
F0.4756279608311318
sS'012021021'
p1804
F0.4905
sS'122102101'
p1805
F1.0
sS'121201200'
p1806
F0.55
sS'121201201'
p1807
F1.0
sS'010212201'
p1808
F0.55
sS'020101120'
p1809
F0.5
sS'101221102'
p1810
F0.11709480754043934
sS'020101122'
p1811
F0.5
sS'122121001'
p1812
F0.36450000000000005
sS'202011010'
p1813
F0.45
sS'202011012'
p1814
F0.6355000000000001
sS'221011102'
p1815
F1.0
sS'102001200'
p1816
F0.5005
sS'201120021'
p1817
F0.54145
sS'100221021'
p1818
F0.8292607317595
sS'010001221'
p1819
F0.5
sS'010001220'
p1820
F0.5
sS'200122110'
p1821
F0.7608515499999999
sS'200122111'
p1822
F1.0
sS'121112122'
p1823
F1.0
sS'120102210'
p1824
F0.5
sS'120102211'
p1825
F0.5
sS'101200012'
p1826
F0.5
sS'100000201'
p1827
F0.6533571547671279
sS'200212110'
p1828
F0.5950000000000001
sS'200212111'
p1829
F1.0
sS'200211201'
p1830
F0.0
sS'210120001'
p1831
F0.26358938393467285
sS'210120000'
p1832
F0.3844528051571799
sS'102010212'
p1833
F0.9739378280619276
sS'102010210'
p1834
F0.5180500000000001
sS'112202121'
p1835
F0.55
sS'000200010'
p1836
F0.6249573750536781
sS'111020122'
p1837
F1.0
sS'121112020'
p1838
F0.5
sS'121112022'
p1839
F0.55
sS'001110022'
p1840
F0.5
sS'022111120'
p1841
F1.0
sS'102121212'
p1842
F0.0
sS'011221020'
p1843
F0.704755
sS'011221021'
p1844
F1.0
sS'020210101'
p1845
F0.5
sS'020210100'
p1846
F0.9452905054342439
sS'200211120'
p1847
F0.55
sS'102101122'
p1848
F1.0
sS'011120002'
p1849
F0.5
sS'010122120'
p1850
F0.9580281422634315
sS'010122121'
p1851
F0.2552753841430209
sS'020110012'
p1852
F0.03683122303396413
sS'002111212'
p1853
F1.0
sS'112120221'
p1854
F0.0
sS'202000101'
p1855
F0.7315227055000001
sS'110202120'
p1856
F0.5
sS'110202121'
p1857
F0.5
sS'121000120'
p1858
F0.5
sS'110122102'
p1859
F1.0
sS'211211122'
p1860
F1.0
sS'121202121'
p1861
F0.5
sS'012102120'
p1862
F0.5
sS'012102121'
p1863
F0.48645
sS'212112021'
p1864
F0.007390441470717294
sS'001200112'
p1865
F0.4962915
sS'011201221'
p1866
F1.0
sS'002012001'
p1867
F0.5950000000000001
sS'110002210'
p1868
F0.5
sS'110002212'
p1869
F0.55
sS'012001120'
p1870
F0.5
sS'012001122'
p1871
F0.5
sS'021211020'
p1872
F0.7608515499999999
sS'021211021'
p1873
F1.0
sS'100001122'
p1874
F0.5
sS'122012110'
p1875
F0.5
sS'122200101'
p1876
F0.907348990557408
sS'020121201'
p1877
F0.55
sS'122012112'
p1878
F0.0
sS'121012012'
p1879
F0.3267749773416909
sS'202011112'
p1880
F0.5
sS'012212121'
p1881
F0.6355000000000001
sS'200121012'
p1882
F0.0
sS'200121010'
p1883
F0.008923326328226731
sS'102221211'
p1884
F0.0
sS'212010112'
p1885
F1.0
sS'220101112'
p1886
F0.32805000000000006
sS'221211100'
p1887
F1.0
sS'021110220'
p1888
F0.5950000000000001
sS'021020100'
p1889
F0.040368254124186875
sS'211122100'
p1890
F0.00019218567867965915
sS'211200010'
p1891
F0.45
sS'211200012'
p1892
F0.5
sS'201021102'
p1893
F0.0
sS'111202120'
p1894
F1.0
sS'102011022'
p1895
F0.5950000000000001
sS'200001100'
p1896
F0.49905
sS'102011020'
p1897
F0.5
sS'200001102'
p1898
F0.49195
sS'002001121'
p1899
F0.4531913151462918
sS'002001120'
p1900
F0.5
sS'102110122'
p1901
F1.0
sS'001202211'
p1902
F0.5
sS'100222110'
p1903
F0.0
sS'000200100'
p1904
F0.8252081622819518
sS'012211221'
p1905
F0.55
sS'011020102'
p1906
F0.36450000000000005
sS'000200101'
p1907
F0.5
sS'202000011'
p1908
F0.55
sS'100012212'
p1909
F0.9360981677385432
sS'100012210'
p1910
F0.5
sS'022121001'
p1911
F0.4905
sS'110122201'
p1912
F0.07504731764849956
sS'221120112'
p1913
F0.0
sS'201012121'
p1914
F1.0
sS'120210012'
p1915
F0.43571527082576944
sS'011220001'
p1916
F0.017086236384401546
sS'011220000'
p1917
F0.9118934299195577
sS'100210002'
p1918
F0.7207702131843732
sS'120210010'
p1919
F0.49510432453577874
sS'122221101'
p1920
F0.8587852317595001
sS'011202102'
p1921
F0.5
sS'011202100'
p1922
F0.5
sS'101210122'
p1923
F1.0
sS'201110020'
p1924
F0.521695
sS'112110022'
p1925
F0.156905298045
sS'012200121'
p1926
F0.5
sS'001100221'
p1927
F0.5
sS'001100220'
p1928
F0.5
sS'101200201'
p1929
F0.5
sS'101200200'
p1930
F0.704755
sS'221020101'
p1931
F0.82566077995
sS'200020101'
p1932
F0.8587852317595001
sS'202211211'
p1933
F0.0
sS'020201101'
p1934
F0.5
sS'020201100'
p1935
F0.5005
sS'221000121'
p1936
F0.843094701955
sS'122211100'
p1937
F0.47385
sS'122100210'
p1938
F0.5
sS'122100211'
p1939
F0.45
sS'100202121'
p1940
F0.5
sS'212010121'
p1941
F0.18358579327922378
sS'212002110'
p1942
F0.5
sS'212002111'
p1943
F1.0
sS'121102120'
p1944
F1.0
sS'012000000'
p1945
F0.4745805565968912
sS'012000001'
p1946
F0.43420563619270686
sS'021010002'
p1947
F0.9914387507741028
sS'021010000'
p1948
F0.9335006362039578
sS'220211010'
p1949
F0.495
sS'220211011'
p1950
F0.45
sS'221110212'
p1951
F0.9964651747549245
sS'221110210'
p1952
F0.22652315354165048
sS'202101100'
p1953
F0.36450000000000005
sS'202101102'
p1954
F0.55
sS'120100210'
p1955
F0.4983806754350157
sS'120100212'
p1956
F0.493008962445
sS'021000121'
p1957
F0.45
sS'021000120'
p1958
F0.5
sS'011120212'
p1959
F0.2657205
sS'201001210'
p1960
F0.4545
sS'201001212'
p1961
F0.5
sS'120020112'
p1962
F0.704755
sS'120020110'
p1963
F0.5817057085450001
sS'122110200'
p1964
F0.82566077995
sS'122110201'
p1965
F1.0
sS'111212002'
p1966
F1.0
sS'010021120'
p1967
F0.3974844276720583
sS'010021122'
p1968
F0.5
sS'211212010'
p1969
F1.0
sS'101001022'
p1970
F0.36450000000000005
sS'000010012'
p1971
F0.05960209825733311
sS'121220211'
p1972
F0.7608515499999999
sS'100220011'
p1973
F0.0023191988432940502
sS'100220010'
p1974
F0.04629778055572811
sS'211022010'
p1975
F0.41657321682404996
sS'211022011'
p1976
F0.0019939974195322084
sS'012120012'
p1977
F0.47391484500000003
sS'012120010'
p1978
F0.049863214247836594
sS'112010212'
p1979
F1.0
sS'201010221'
p1980
F0.9738326183486319
sS'112212000'
p1981
F0.9166140915016672
sS'112212001'
p1982
F1.0
sS'110002000'
p1983
F0.4960304034702514
sS'110002002'
p1984
F0.55
sS'101222010'
p1985
F0.0
sS'211201000'
p1986
F0.405
sS'211201002'
p1987
F0.4905
sS'201121201'
p1988
F1.0
sS'110012202'
p1989
F0.5
sS'220110001'
p1990
F0.5
sS'220110000'
p1991
F0.55
sS'201102112'
p1992
F0.405
sS'102221001'
p1993
F0.001364289829980823
sS'012110220'
p1994
F0.55
sS'012110221'
p1995
F0.5
sS'022120011'
p1996
F0.5
sS'211200201'
p1997
F0.0
sS'201120001'
p1998
F0.23005766640683126
sS'201120000'
p1999
F0.3054124189589915
sS'000001120'
p2000
F0.4977488644372515
sS'000001122'
p2001
F0.5
sS'112211002'
p2002
F0.1679004790169165
sS'102102100'
p2003
F1.0
sS'210001012'
p2004
F0.45
sS'001020201'
p2005
F0.8694242549431641
sS'002112010'
p2006
F0.35539245
sS'002112012'
p2007
F0.0
sS'120112200'
p2008
F0.7825795931062848
sS'120112201'
p2009
F1.0
sS'120002101'
p2010
F0.5
sS'120002100'
p2011
F0.7847663949999999
sS'222101100'
p2012
F0.0
sS'011012202'
p2013
F0.5154694035393332
sS'011012200'
p2014
F0.5
sS'122121021'
p2015
F0.0
sS'202110102'
p2016
F0.6792795
sS'202110100'
p2017
F0.36450000000000005
sS'112202100'
p2018
F0.5
sS'112202101'
p2019
F0.5
sS'210120021'
p2020
F0.49905
sS'121112002'
p2021
F0.31659209235634206
sS'101000122'
p2022
F0.5
sS'110212012'
p2023
F1.0
sS'212100012'
p2024
F0.5
sS'212100010'
p2025
F0.4986
sS'222211110'
p2026
F0.0
sS'121011222'
p2027
F0.0
sS'011221000'
p2028
F0.5691943283410001
sS'011221002'
p2029
F0.704755
sS'010001202'
p2030
F0.5
sS'010001200'
p2031
F0.499675825
sS'020210121'
p2032
F0.55
sS'011022210'
p2033
F0.5
sS'011022211'
p2034
F1.0469562681205929e-05
sS'200111212'
p2035
F1.0
sS'010122100'
p2036
F0.1984909196886756
sS'011120022'
p2037
F0.5
sS'000201012'
p2038
F0.50031
sS'011210122'
p2039
F1.0
sS'202012111'
p2040
F1.0
sS'101202120'
p2041
F0.883074171896866
sS'101202121'
p2042
F0.405
sS'012211102'
p2043
F0.0013340346069078812
sS'012102100'
p2044
F0.45
sS'012102102'
p2045
F0.0
sS'110122120'
p2046
F1.0
sS'200110221'
p2047
F0.6355000000000001
sS'220011210'
p2048
F0.5950000000000001
sS'220011211'
p2049
F0.1412147682405
sS'011201200'
p2050
F0.5
sS'011201202'
p2051
F0.5
sS'202211001'
p2052
F0.2570633733071937
sS'020100112'
p2053
F0.47903720099849995
sS'102120010'
p2054
F0.45
sS'102120012'
p2055
F0.55
sS'210220101'
p2056
F0.67195
sS'012121000'
p2057
F0.010505853626432466
sS'201002001'
p2058
F0.5
sS'200210011'
p2059
F0.5
sS'200210010'
p2060
F0.704755
sS'100120012'
p2061
F0.2801540673787964
sS'100022101'
p2062
F0.33534
sS'100022100'
p2063
F0.8407281531432524
sS'210212110'
p2064
F1.0
sS'210200121'
p2065
F0.5
sS'010121122'
p2066
F0.5
sS'012212100'
p2067
F0.55
sS'012212101'
p2068
F0.5180500000000001
sS'120211120'
p2069
F0.505
sS'120211122'
p2070
F0.6355000000000001
sS'010112220'
p2071
F0.22952626442342508
sS'010112221'
p2072
F0.15975837780788216
sS'010102212'
p2073
F0.55
sS'010102210'
p2074
F0.5
sS'020021121'
p2075
F0.0
sS'200012001'
p2076
F0.5017488954584499
sS'201210201'
p2077
F0.0
sS'120001012'
p2078
F0.499779
sS'022102011'
p2079
F0.5
sS'221001211'
p2080
F1.0
sS'112010022'
p2081
F0.2837999506069636
sS'112010020'
p2082
F0.3855873413583792
sS'201112012'
p2083
F0.5814749024506543
sS'221211121'
p2084
F1.0
sS'011112022'
p2085
F0.36450000000000005
sS'120100000'
p2086
F0.6167945485680068
sS'200001121'
p2087
F0.5
sS'200001120'
p2088
F0.5
sS'102011002'
p2089
F0.20994458378910974
sS'120200100'
p2090
F0.787653220718217
sS'111202102'
p2091
F1.0
sS'211002102'
p2092
F0.5
sS'201001000'
p2093
F0.7513606592815221
sS'201001002'
p2094
F0.7852040426995948
sS'211002100'
p2095
F0.4986
sS'120010021'
p2096
F1.0
sS'120010020'
p2097
F0.5950000000000001
sS'000112122'
p2098
F0.5860000000000001
sS'000112120'
p2099
F0.5
sS'110220210'
p2100
F0.6355000000000001
sS'110220211'
p2101
F0.36450000000000005
sS'002210211'
p2102
F0.6642550000000002
sS'201220101'
p2103
F0.7847663949999999
sS'201012100'
p2104
F1.0
sS'020122101'
p2105
F0.82566077995
sS'011202120'
p2106
F0.5
sS'011202121'
p2107
F0.5
sS'121211020'
p2108
F0.5
sS'121211022'
p2109
F0.5950000000000001
sS'002021121'
p2110
F0.0006271944310961797
sS'221102010'
p2111
F0.50005
sS'221102011'
p2112
F0.47207205
sS'002121112'
p2113
F0.114383962274805
sS'000210010'
p2114
F0.6577047553060611
sS'000210012'
p2115
F0.9776587379141505
sS'012200101'
p2116
F0.5
sS'012200100'
p2117
F0.5
sS'211001212'
p2118
F0.5
sS'010221201'
p2119
F0.80571170858355
sS'110211022'
p2120
F0.0008083907139049332
sS'110222211'
p2121
F0.0
sS'210210112'
p2122
F1.0
sS'002102110'
p2123
F0.405
sS'002102112'
p2124
F0.0
sS'100200121'
p2125
F0.497385
sS'100200120'
p2126
F0.7537338177644755
sS'110020221'
p2127
F0.55
sS'211202121'
p2128
F0.5
sS'101002021'
p2129
F0.5
sS'212011210'
p2130
F1.0
sS'122211121'
p2131
F1.0
sS'122211120'
p2132
F0.5950000000000001
sS'210001201'
p2133
F0.5
sS'022101112'
p2134
F0.45
sS'002112201'
p2135
F0.6355000000000001
sS'002212101'
p2136
F0.9783532503376888
sS'000102000'
p2137
F0.5073674976559152
sS'022211211'
p2138
F0.5
sS'101200221'
p2139
F0.5
sS'121102102'
p2140
F1.0
sS'000100122'
p2141
F0.55
sS'022000111'
p2142
F1.0
sS'022000110'
p2143
F0.55
sS'001012102'
p2144
F1.0
sS'102020211'
p2145
F0.0
sS'110221020'
p2146
F0.55
sS'110221021'
p2147
F0.4276015653946133
sS'012020001'
p2148
F0.24822049094698329
sS'102120201'
p2149
F0.0
sS'101001222'
p2150
F0.0
sS'101001220'
p2151
F0.45
sS'221002011'
p2152
F0.55
sS'021000102'
p2153
F0.55
sS'021000100'
p2154
F0.5036197802401345
sS'022021110'
p2155
F0.8970544339526756
sS'022021111'
p2156
F1.0
sS'012221100'
p2157
F0.05905550759749726
sS'012221101'
p2158
F0.11785848861731833
sS'020021110'
p2159
F0.03771471283312515
sS'020021112'
p2160
F0.06389891048290361
sS'201121002'
p2161
F0.0
sS'202010011'
p2162
F0.32805000000000006
sS'202010010'
p2163
F0.5905
sS'020121012'
p2164
F0.4660730118380976
sS'020121010'
p2165
F0.47811613184777696
sS'212020110'
p2166
F0.67195
sS'212020111'
p2167
F1.0
sS'111021022'
p2168
F1.0
sS'022110021'
p2169
F0.5
sS'011202001'
p2170
F0.45
sS'101122120'
p2171
F1.0
sS'110002021'
p2172
F0.5
sS'110002020'
p2173
F0.55
sS'200102001'
p2174
F0.4975708684918952
sS'110012220'
p2175
F0.7847663949999999
sS'110012221'
p2176
F1.0
sS'102210210'
p2177
F0.5950000000000001
sS'102210211'
p2178
F1.0
sS'000201010'
p2179
F0.498509963352658
sS'012100212'
p2180
F0.55
sS'012100210'
p2181
F0.405
sS'211102102'
p2182
F0.5
sS'120221010'
p2183
F0.5338438696449999
sS'120221011'
p2184
F0.6131005889005
sS'210021120'
p2185
F0.5
sS'210021121'
p2186
F0.15757627842090555
sS'120200101'
p2187
F0.5
sS'001121212'
p2188
F0.1064378020731626
sS'220102101'
p2189
F0.55
sS'011102122'
p2190
F0.5
sS'000220011'
p2191
F0.9145905174562464
sS'112220211'
p2192
F0.0
sS'210210201'
p2193
F0.0
sS'120002121'
p2194
F0.5
sS'000001102'
p2195
F0.4778339982643909
sS'002200101'
p2196
F0.55
sS'212201010'
p2197
F0.5
sS'212201011'
p2198
F0.405
sS'011012221'
p2199
F0.4905
sS'112211022'
p2200
F0.001369463724976704
sS'112211020'
p2201
F0.14735471780236667
sS'001202001'
p2202
F0.4955
sS'002121102'
p2203
F0.55
sS'010100212'
p2204
F0.49734
sS'222101121'
p2205
F0.0
sS'101022201'
p2206
F0.9049428856011926
sS'002011210'
p2207
F0.5
sS'002011212'
p2208
F0.595405
sS'011012220'
p2209
F0.5
sS'121200112'
p2210
F0.31802891395512134
sS'212112100'
p2211
F0.17433922005
sS'202121001'
p2212
F0.14908472671014977
sS'010020112'
p2213
F0.0037948389971514495
sS'012110200'
p2214
F0.5135500000000001
sS'012110202'
p2215
F0.5950000000000001
sS'021212001'
p2216
F0.8587852317595001
sS'201111220'
p2217
F1.0
sS'102201001'
p2218
F0.4951236990807
sS'102201000'
p2219
F0.49996168205
sS'022121211'
p2220
F0.0
sS'121011202'
p2221
F0.29524500000000004
sS'000122001'
p2222
F0.6140366296573346
sS'210022101'
p2223
F0.7608515499999999
sS'011220210'
p2224
F0.5950000000000001
sS'011220211'
p2225
F0.36450000000000005
sS'022010211'
p2226
F0.67195
sS'102102121'
p2227
F1.0
sS'110222001'
p2228
F0.0
sS'200120011'
p2229
F0.03395907357318531
sS'200120010'
p2230
F0.035285985738318426
sS'221121001'
p2231
F1.0
sS'202110120'
p2232
F0.5
sS'202110121'
p2233
F0.29524500000000004
sS'120212100'
p2234
F0.87290670858355
sS'120212101'
p2235
F1.0
sS'111022000'
p2236
F1.0
sS'200110201'
p2237
F0.28897166570628746
sS'200110200'
p2238
F0.7608515499999999
sS'222110010'
p2239
F0.0
sS'000020121'
p2240
F0.061303629604282095
sS'202001011'
p2241
F0.45
sS'202001010'
p2242
F0.5
sS'212011020'
p2243
F0.67195
sS'212011021'
p2244
F0.23891922921799663
sS'002110122'
p2245
F0.7342795
sS'100022121'
p2246
F0.7608515499999999
sS'101202100'
p2247
F0.45
sS'101202102'
p2248
F0.885616037725195
sS'001002001'
p2249
F0.47080470157572485
sS'022201110'
p2250
F0.5950000000000001
sS'210200100'
p2251
F0.5
sS'120211102'
p2252
F0.19512402959496963
sS'021010212'
p2253
F0.0020465323578010893
sS'021010210'
p2254
F0.3029126605848693
sS'010112200'
p2255
F0.31171184248764877
sS'010112202'
p2256
F0.5950000000000001
sS'000202101'
p2257
F0.6890511249500001
sS'010002102'
p2258
F0.5
sS'212021100'
p2259
F0.02251283676194549
sS'001201201'
p2260
F1.0
sS'001201200'
p2261
F0.55
sS'122002011'
p2262
F0.5950000000000001
sS'012121020'
p2263
F0.4265964888759722
sS'012121021'
p2264
F0.09265100944259205
sS'000221001'
p2265
F0.7375618632239737
sS'112010002'
p2266
F0.1973907391455
sS'212210011'
p2267
F1.0
sS'020212011'
p2268
F0.55
sS'021101122'
p2269
F0.5
sS'020010112'
p2270
F0.01039400652984505
sS'012020211'
p2271
F0.0
sS'021102112'
p2272
F0.5
sS'120100021'
p2273
F0.5
sS'120100020'
p2274
F0.67195
sS'102012012'
p2275
F0.0
sS'102012010'
p2276
F0.45
sS'120011202'
p2277
F0.7608515499999999
sS'201001021'
p2278
F1.0
sS'201001020'
p2279
F0.7847663949999999
sS'120010002'
p2280
F0.6956591738511386
sS'120010000'
p2281
F0.5137517872
sS'220010001'
p2282
F0.5005
sS'220110210'
p2283
F0.55
sS'220110211'
p2284
F0.156905298045
sS'000112102'
p2285
F0.008474376794242781
sS'111212212'
p2286
F1.0
sS'110200210'
p2287
F0.5
sS'110200212'
p2288
F0.5
sS'220001121'
p2289
F0.5
sS'110210202'
p2290
F0.8595043075100426
sS'110210200'
p2291
F0.5
sS'112011202'
p2292
F0.45
sS'121022110'
p2293
F0.23914845
sS'121022112'
p2294
F0.7847663949999999
sS'111221020'
p2295
F1.0
sS'221201112'
p2296
F0.55
sS'201201010'
p2297
F0.45
sS'201201012'
p2298
F0.5
sS'210011122'
p2299
F0.5326704999999999
sS'121210200'
p2300
F0.8194287973123755
sS'121210201'
p2301
F1.0
sS'201120210'
p2302
F0.3753221124930434
sS'201120211'
p2303
F0.0038748402157919694
sS'201021001'
p2304
F1.0
sS'201021000'
p2305
F0.838469874702686
sS'102210001'
p2306
F1.0
sS'102210000'
p2307
F0.5950000000000001
sS'021201102'
p2308
F0.5950000000000001
sS'002021101'
p2309
F0.0015078508385441174
sS'002021100'
p2310
F0.5064124897284141
sS'211002010'
p2311
F0.5
sS'211002012'
p2312
F0.5
sS'002211010'
p2313
F0.36157385139005604
sS'002211012'
p2314
F0.9493750691222708
sS'200201001'
p2315
F0.55
sS'112220001'
p2316
F0.40421933901
sS'210001212'
p2317
F0.55
sS'010211122'
p2318
F0.00041261122945690255
sS'020111221'
p2319
F1.0
sS'100200102'
p2320
F0.779194296740486
sS'100200100'
p2321
F0.3891831445856655
sS'211202100'
p2322
F0.5
sS'211202101'
p2323
F0.5
sS'121211002'
p2324
F0.21250933539670497
sS'110020201'
p2325
F0.45
sS'110020200'
p2326
F0.9166140915016672
sS'101002002'
p2327
F0.7847663949999999
sS'101002000'
p2328
F0.7531198247542976
sS'101120212'
p2329
F0.10155775479050899
sS'210001221'
p2330
F0.5
sS'201110202'
p2331
F0.7342795
sS'010100002'
p2332
F0.49681929604999997
sS'021202101'
p2333
F0.5
sS'002011000'
p2334
F0.43963450152532735
sS'002011002'
p2335
F0.8867735075232112
sS'010010020'
p2336
F0.26577883038614347
sS'010010022'
p2337
F0.019523021341455473
sS'112212211'
p2338
F1.0
sS'100102002'
p2339
F0.5950000000000001
sS'001012120'
p2340
F1.0
sS'111120202'
p2341
F1.0
sS'121212112'
p2342
F1.0
sS'110212200'
p2343
F0.55
sS'110212201'
p2344
F1.0
sS'110221000'
p2345
F0.41653252940678587
sS'110221002'
p2346
F0.5
sS'000122211'
p2347
F0.31501427668817517
sS'102021010'
p2348
F0.012227599435134663
sS'102021012'
p2349
F0.2945445959201535
sS'101001202'
p2350
F0.405
sS'020112112'
p2351
F0.00029666850375605064
sS'210211102'
p2352
F0.6303470208826599
sS'012221121'
p2353
F6.893296981215743e-35
sS'000002001'
p2354
F0.6418287737114149
sS'011211022'
p2355
F0.0020114237203197848
sS'221111122'
p2356
F1.0
sS'011222211'
p2357
F0.0
sS'111022210'
p2358
F1.0
sS'112001002'
p2359
F0.4655360893195088
sS'001122012'
p2360
F0.5065934899055741
sS'110012022'
p2361
F0.7847663949999999
sS'110012020'
p2362
F0.7100463527303745
sS'020001112'
p2363
F0.4501711638400235
sS'201210121'
p2364
F1.0
sS'022110001'
p2365
F0.5
sS'022110000'
p2366
F0.5950000000000001
sS'101122102'
p2367
F1.0
sS'201210012'
p2368
F0.5950000000000001
sS'201210010'
p2369
F0.5
sS'212211000'
p2370
F0.55
sS'212211001'
p2371
F0.16298413077452842
sS'020211021'
p2372
F0.5
sS'000121102'
p2373
F0.29524500000000004
sS'120022011'
p2374
F0.55
sS'012211122'
p2375
F3.6332712553473403e-63
sS'012211120'
p2376
F0.13853645294211264
sS'002001201'
p2377
F0.4955
sS'202011210'
p2378
F0.5
sS'202011211'
p2379
F0.5
sS'021012112'
p2380
F1.0
sS'210021100'
p2381
F0.29524500000000004
sS'210021102'
p2382
F0.0
sS'210000012'
p2383
F0.5
sS'210000010'
p2384
F0.47905385960589186
sS'120200121'
p2385
F0.55
sS'121001212'
p2386
F0.3400403504660237
sS'110120220'
p2387
F0.730338445
sS'110120221'
p2388
F0.2657205
sS'002221101'
p2389
F0.7342795
sS'101201122'
p2390
F0.5
sS'212120100'
p2391
F0.004237601742008911
sS'212120101'
p2392
F0.001483890660298228
sS'122121201'
p2393
F0.0
sS'222101112'
p2394
F0.0
sS'212101012'
p2395
F0.5
sS'220112112'
p2396
F0.8062897554999999
sS'220112110'
p2397
F0.215233605
sS'002000001'
p2398
F0.7045347008354418
sS'201100221'
p2399
F0.55
sS'000200211'
p2400
F0.5
sS'200011210'
p2401
F0.45
sS'200011212'
p2402
F0.6355000000000001
sS'102211012'
p2403
F0.03997978267137037
sS'102121012'
p2404
F0.149251806284805
sS'110200000'
p2405
F0.7851780492358212
sS'110200002'
p2406
F0.82566077995
sS'211002201'
p2407
F0.5
sS'002211201'
p2408
F0.5950000000000001
sS'112200100'
p2409
F0.4496361757544308
sS'221010210'
p2410
F0.32552143618395246
sS'221010211'
p2411
F0.156905298045
sS'112221010'
p2412
F0.00017496229083899652
sS'112221012'
p2413
F2.6462626640354302e-15
sS'221112112'
p2414
F1.0
sS'200221011'
p2415
F0.7342795
sS'201122112'
p2416
F0.0
sS'201122110'
p2417
F0.17535897025901545
sS'022011010'
p2418
F0.32805000000000006
sS'022011012'
p2419
F0.8842477068723276
sS'002122110'
p2420
F0.7608515499999999
sS'100211212'
p2421
F0.0011502423512939955
sS'101220210'
p2422
F0.6621085
sS'002010010'
p2423
F0.4410773471492842
sS'002010012'
p2424
F0.9468015291439702
sS'000210201'
p2425
F0.7692689849500001
sS'210210010'
p2426
F1.0
sS'111022021'
p2427
F1.0
sS'001211212'
p2428
F0.00032120426725560855
sS'200201211'
p2429
F0.0
sS'122021121'
p2430
F0.0
sS'010221012'
p2431
F0.32485575685897383
sS'010221010'
p2432
F0.007013901914665135
sS'021011122'
p2433
F1.0
sS'010200100'
p2434
F0.5
sS'010200102'
p2435
F0.5
sS'212011000'
p2436
F0.5
sS'212011002'
p2437
F0.6355000000000001
sS'122100112'
p2438
F1.0
sS'200110122'
p2439
F0.704755
sS'200110120'
p2440
F0.5
sS'002110102'
p2441
F0.0024076710814689394
sS'101120022'
p2442
F0.67195
sS'101120020'
p2443
F0.45
sS'001002021'
p2444
F0.5005
sS'120000012'
p2445
F0.5
sS'012121221'
p2446
F0.0
sS'111122122'
p2447
F1.0
sS'010002121'
p2448
F0.5
sS'010002120'
p2449
F0.5
sS'020102011'
p2450
F0.5
sS'020102010'
p2451
F0.5
sS'220100110'
p2452
F0.405
sS'220100112'
p2453
F0.42638433250499996
sS'002110120'
p2454
F0.5
sS'012202011'
p2455
F0.55
sS'210112120'
p2456
F0.2534133129567518
sS'120011220'
p2457
F0.5950000000000001
sS'122201211'
p2458
F0.7342795
sS'102111022'
p2459
F1.0
sS'022211001'
p2460
F0.5
sS'111202201'
p2461
F1.0
sS'102122211'
p2462
F0.0
sS'001002000'
p2463
F0.6762193409231448
sS'011222001'
p2464
F0.0
sS'001122201'
p2465
F0.0014967853227105259
sS'021120010'
p2466
F0.018122075811905426
sS'021120012'
p2467
F0.00031547250132121904
sS'120110122'
p2468
F1.0
sS'110210220'
p2469
F0.5950000000000001
sS'110210221'
p2470
F1.0
sS'010212102'
p2471
F0.5
sS'220001101'
p2472
F0.505
sS'220001100'
p2473
F0.5
sS'201010102'
p2474
F1.0
sS'212110102'
p2475
F0.41400000000000003
sS'220121110'
p2476
F0.32805000000000006
sS'220121112'
p2477
F0.0
sS'112011222'
p2478
F0.0
sS'112011220'
p2479
F0.5
sS'212000011'
p2480
F0.5
sS'020011221'
p2481
F0.5
sS'210200101'
p2482
F0.5
sS'100112122'
p2483
F1.0
sS'202112100'
p2484
F0.3078199004036235
sS'202112101'
p2485
F0.17842865854500004
sS'211220010'
p2486
F0.44116164
sS'211220011'
p2487
F0.32805000000000006
sS'210121212'
p2488
F0.0
sS'210121210'
p2489
F0.23914845
sS'021201120'
p2490
F0.5950000000000001
sS'021201121'
p2491
F1.0
sS'212101221'
p2492
F0.55
sS'002100201'
p2493
F0.5
sS'020111200'
p2494
F1.0
sS'102200101'
p2495
F0.858519793415359
sS'102200100'
p2496
F0.8097930270617101
sS'012002011'
p2497
F0.5
sS'012002010'
p2498
F0.55
sS'010002100'
p2499
F0.439808629001692
sS'022010001'
p2500
F0.5
sS'121100212'
p2501
F0.427580662005
sS'102001122'
p2502
F0.5
sS'200011000'
p2503
F0.4797675681229372
sS'102001120'
p2504
F0.5
sS'200011002'
p2505
F0.9749008387494251
sS'010100022'
p2506
F0.5
sS'010100020'
p2507
F0.49999779
sS'002011021'
p2508
F0.5
sS'002011020'
p2509
F0.704755
sS'010011202'
p2510
F0.32805000000000006
sS'010010002'
p2511
F0.05935989378151438
sS'100211022'
p2512
F0.2564383600580925
sS'100211020'
p2513
F0.49908931059609
sS'111120220'
p2514
F1.0
sS'200101021'
p2515
F0.5
sS'200101020'
p2516
F0.55
sS'211000120'
p2517
F0.48886428033
sS'021212211'
p2518
F0.5
sS'101220001'
p2519
F0.006648748360102629
sS'101220000'
p2520
F0.704755
sS'102201210'
p2521
F0.5
sS'102201211'
p2522
F0.46842795
sS'220201101'
p2523
F0.5950000000000001
sS'020120011'
p2524
F0.3578294540402032
sS'020120010'
p2525
F0.5776910411628532
sS'211112122'
p2526
F1.0
sS'022011201'
p2527
F0.55
sS'210211122'
p2528
F0.885616037725195
sS'011022112'
p2529
F0.23914845
sS'000012010'
p2530
F0.6569162849200558
sS'000012012'
p2531
F0.95319908792266
sS'011210202'
p2532
F0.5
sS'011210200'
p2533
F0.45
sS'212102100'
p2534
F0.5
sS'212102101'
p2535
F0.495
sS'210012021'
p2536
F0.470955149699886
sS'112001020'
p2537
F0.46723605045691313
sS'112001022'
p2538
F0.5
sS'112210002'
p2539
F0.9130189213780172
sS'112210000'
p2540
F0.8747546589625461
sS'221102110'
p2541
F0.514
sS'110012002'
p2542
F0.46941352317595003
sS'001022001'
p2543
F0.02041018676999102
sS'012002101'
p2544
F0.5
sS'001201012'
p2545
F0.4838777859896283
sS'000102201'
p2546
F0.5
sS'212211021'
p2547
F0.013906419472184673
sS'001220101'
p2548
F0.29524500000000004
sS'001220100'
p2549
F0.40404331020968987
sS'202121100'
p2550
F0.002327157197485789
sS'202121101'
p2551
F0.001161178594841992
sS'000121120'
p2552
F0.405
sS'020211001'
p2553
F0.5
sS'020211000'
p2554
F0.5005
sS'101200122'
p2555
F0.885616037725195
sS'021100002'
p2556
F0.50041
sS'122201001'
p2557
F0.55
sS'221121120'
p2558
F0.0
sS'021220110'
p2559
F0.9452905054342439
sS'021220111'
p2560
F1.0
sS'100100200'
p2561
F0.47559848639042335
sS'102002112'
p2562
F0.0
sS'102002110'
p2563
F0.405
sS'110120200'
p2564
F0.011305485850313417
sS'110120202'
p2565
F0.7342795
sS'122122111'
p2566
F1.0
sS'100122100'
p2567
F1.0
sS'021120201'
p2568
F0.9124038896418638
sS'212120121'
p2569
F5.870816374753916e-18
sS'221210110'
p2570
F1.0
sS'200001201'
p2571
F0.55
sS'201100201'
p2572
F0.5
sS'201100200'
p2573
F0.5026149999999999
sS'211221000'
p2574
F0.67195
sS'211221001'
p2575
F1.0
sS'120010212'
p2576
F0.019200660893950092
sS'120010210'
p2577
F0.2758539687766499
sS'201020101'
p2578
F0.6650209956681458
sS'201020100'
p2579
F0.5571292471300244
sS'110200021'
p2580
F0.5
sS'110200020'
p2581
F0.80413741945
sS'102122001'
p2582
F0.55
sS'220011121'
p2583
F0.5
sS'210020121'
p2584
F0.20287165856681413
sS'001120122'
p2585
F0.5
sS'120121210'
p2586
F0.21523394257756095
sS'001120120'
p2587
F0.405
sS'120121212'
p2588
F3.038198048323851e-06
sS'120202011'
p2589
F0.5
sS'112200121'
p2590
F0.31035919570075143
sS'000022111'
p2591
F1.0
sS'000022110'
p2592
F0.9051756952741867
sS'121000012'
p2593
F0.4961476070160312
sS'001001020'
p2594
F0.5
sS'001001022'
p2595
F0.4905
sS'022001001'
p2596
F0.5
sS'212001012'
p2597
F0.6355000000000001
sS'021021001'
p2598
F1.0
sS'021021000'
p2599
F0.8189650880857585
sS'021011212'
p2600
F0.0005752348358960477
sS'212001010'
p2601
F0.505
sS'200000001'
p2602
F0.6454679184799719
sS'121211212'
p2603
F0.0
sS'020201001'
p2604
F0.55
sS'201021210'
p2605
F0.5950000000000001
sS'201021211'
p2606
F1.0
sS'012122001'
p2607
F0.5005
sS'100100122'
p2608
F1.0
sS'010022011'
p2609
F0.331695
sS'200111020'
p2610
F1.0
sS'202112121'
p2611
F0.1937102445
sS'001100122'
p2612
F0.5
sS'122021100'
p2613
F0.8193619030109797
sS'122021101'
p2614
F0.2657205
sS'002100012'
p2615
F0.5
sS'002100010'
p2616
F0.49873999999999996
sS'100201120'
p2617
F0.4531157462224952
sS'201000000'
p2618
F0.6733385313961562
sS'201000001'
p2619
F0.5
sS'112020010'
p2620
F0.007775863135814792
sS'112020012'
p2621
F0.1440400280966666
sS'010200121'
p2622
F0.4927690413837785
sS'010200120'
p2623
F0.5
sS'121010002'
p2624
F0.49665957569999997
sS'102100210'
p2625
F0.405
sS'102100212'
p2626
F0.4905
sS'101002212'
p2627
F0.55
sS'200110102'
p2628
F0.6302278716486363
sS'101120002'
p2629
F0.5679919720850983
sS'121100022'
p2630
F0.55
sS'121100020'
p2631
F0.45
sS'222011010'
p2632
F0.0
sS'012121200'
p2633
F0.0
sS'100210012'
p2634
F0.4959838708754569
sS'212121201'
p2635
F0.0
sS'210102201'
p2636
F0.496769086945
sS'201112212'
p2637
F0.9845484228086836
sS'201112210'
p2638
F0.19396967327846282
sS'001210012'
p2639
F0.5
sS'201200011'
p2640
F0.45
sS'201200010'
p2641
F0.5
sS'101021122'
p2642
F0.45
sS'120012102'
p2643
F0.5950000000000001
sS'001200000'
p2644
F0.5736667289752768
sS'001200001'
p2645
F0.4995
sS'002210011'
p2646
F0.5
sS'002210010'
p2647
F0.704755
sS'212011122'
p2648
F0.9324574141163504
sS'102110202'
p2649
F0.7342795
sS'102110200'
p2650
F0.6274248686935927
sS'002111122'
p2651
F1.0
sS'110210022'
p2652
F0.8766235606218763
sS'110210020'
p2653
F0.505
sS'122200011'
p2654
F0.55
sS'121210020'
p2655
F0.9009235616971671
sS'121210021'
p2656
F1.0
sS'112210210'
p2657
F1.0
sS'201010120'
p2658
F1.0
sS'212110122'
p2659
F0.9788044208623918
sS'212110120'
p2660
F0.16943299667745995
sS'012021120'
p2661
F0.28245402328490643
sS'012021121'
p2662
F0.0004199897083029091
sS'000102012'
p2663
F0.5
sS'000102010'
p2664
F0.5
sS'020011201'
p2665
F0.5
sS'020011200'
p2666
F0.55
sS'210122010'
p2667
F0.4770679522845404
sS'210122011'
p2668
F0.3439286421212137
sS'112110202'
p2669
F0.5
sS'021201100'
p2670
F0.5135500000000001
sS'212101200'
p2671
F0.55
sS'212101201'
p2672
F0.5
sS'102112200'
p2673
F0.7342795
sS'102112201'
p2674
F1.0
sS'221000211'
p2675
F0.5950000000000001
sS'010000012'
p2676
F0.4609302859024974
sS'010212120'
p2677
F0.55
sS'010212121'
p2678
F0.5
sS'120201021'
p2679
F0.55
sS'121122100'
p2680
F1.0
sS'021122121'
p2681
F0.0
sS'120121020'
p2682
F0.0
sS'112102210'
p2683
F0.2657205
sS'112102212'
p2684
F0.0
sS'102200121'
p2685
F0.9073386655206248
sS'211200102'
p2686
F0.5
sS'211200100'
p2687
F0.498195
sS'112002021'
p2688
F0.55
sS'102001102'
p2689
F0.5
sS'002000211'
p2690
F0.5334946055335901
sS'111020020'
p2691
F1.0
sS'022111021'
p2692
F1.0
sS'012210021'
p2693
F0.5905
sS'200011021'
p2694
F0.505
sS'200011020'
p2695
F0.6355000000000001
sS'010011220'
p2696
F0.29524500000000004
sS'012201211'
p2697
F0.45
sS'010011222'
p2698
F0.0
sS'102020010'
p2699
F0.5254810354261797
sS'200100201'
p2700
F0.5
sS'200101002'
p2701
F0.55
sS'200101000'
p2702
F0.47707190159347823
sS'211000102'
p2703
F0.40950000000000003
sS'101220021'
p2704
F0.82566077995
sS'100121200'
p2705
F0.01044615372772019
sS'100121202'
p2706
F0.24942888909641223
sS'121000201'
p2707
F0.7473735946999731
sS'022121110'
p2708
F0.36450000000000005
sS'022121112'
p2709
F0.82566077995
sS'222101211'
p2710
F0.0
sS'212102010'
p2711
F0.55
sS'212102011'
p2712
F0.50905
sS'111210022'
p2713
F1.0
sS'111221200'
p2714
F1.0
sS'011210220'
p2715
F0.55
sS'011210221'
p2716
F0.5
sS'201211012'
p2717
F0.45
sS'100211002'
p2718
F0.01801993904999701
sS'100210201'
p2719
F1.0
sS'120000201'
p2720
F0.7203515500000001
sS'212102121'
p2721
F0.32805000000000006
sS'210012001'
p2722
F0.49896380675165397
sS'210012000'
p2723
F0.6355000000000001
sS'112210020'
p2724
F0.907348990557408
sS'112210021'
p2725
F1.0
sS'222112110'
p2726
F0.0
sS'201000211'
p2727
F0.45
sS'201000210'
p2728
F0.4953369440269574
sS'202121121'
p2729
F0.03589489938459262
sS'021001210'
p2730
F0.49927339197561593
sS'021001212'
p2731
F0.4592380983270543
sS'001220121'
p2732
F0.55
sS'102100000'
p2733
F0.5174035673277804
sS'102100002'
p2734
F0.5950000000000001
sS'110100202'
p2735
F0.32805000000000006
sS'121002201'
p2736
F0.8045847631374596
sS'221122101'
p2737
F0.55
sS'212121012'
p2738
F0.0
sS'212121010'
p2739
F0.12709329141645
sS'001010212'
p2740
F0.022449881312540207
sS'001210201'
p2741
F0.45
sS'001210200'
p2742
F0.48452449999999997
sS'002001021'
p2743
F0.5
sS'220102110'
p2744
F0.55
sS'100122121'
p2745
F1.0
sS'220102111'
p2746
F1.0
sS'101022001'
p2747
F0.010516489639736028
sS'101022000'
p2748
F0.816788372455
sS'120102100'
p2749
F1.0
sS'022112110'
p2750
F0.5
sS'002120121'
p2751
F0.8587852317595001
sS'200211112'
p2752
F0.5851522909781639
sS'202121011'
p2753
F0.06078832729528464
sS'221100010'
p2754
F0.4999595
sS'221100012'
p2755
F0.5
sS'221121102'
p2756
F0.0
sS'221121100'
p2757
F0.2657205
sS'122112100'
p2758
F1.0
sS'210202011'
p2759
F0.55
sS'200021110'
p2760
F0.45
sS'200021112'
p2761
F0.0
sS'102121020'
p2762
F0.8587852317595001
sS'021210001'
p2763
F0.5
sS'021210000'
p2764
F0.9578000344292817
sS'201020121'
p2765
F0.843094701955
sS'001120102'
p2766
F0.36450000000000005
sS'210020101'
p2767
F0.3000484447973765
sS'210020100'
p2768
F0.33087579010792456
sS'212012011'
p2769
F1.0
sS'120120010'
p2770
F0.49557740998775357
sS'120120012'
p2771
F0.5950000000000001
sS'010000221'
p2772
F0.5
sS'022100121'
p2773
F0.5
sS'020211210'
p2774
F0.22826558045750925
sS'020211211'
p2775
F0.156905298045
sS'001001002'
p2776
F0.4127156816396509
sS'000000210'
p2777
F0.47692283776516825
sS'000000211'
p2778
F0.44849994616525546
sS'102010102'
p2779
F0.018416456707073644
sS'122120110'
p2780
F1.0
sS'021112012'
p2781
F0.00032127938685701815
sS'202100110'
p2782
F0.405
sS'202100112'
p2783
F0.5
sS'011002221'
p2784
F0.5
sS'012022011'
p2785
F0.55
sS'012201001'
p2786
F0.45041413845558664
sS'012201000'
p2787
F0.5
sS'100010221'
p2788
F1.0
sS'100010220'
p2789
F0.5950000000000001
sS'200100012'
p2790
F0.503636094955
sS'200100010'
p2791
F0.41918931792680747
sS'201000021'
p2792
F0.55
sS'112012120'
p2793
F0.45
sS'112012122'
p2794
F0.0
sS'121010020'
p2795
F0.855161281796187
sS'121010022'
p2796
F0.8974367772961672
sS'102110002'
p2797
F0.30521774322595
sS'020020011'
p2798
F0.910105770698022
sS'121100002'
p2799
F0.499905
sS'210002011'
p2800
F0.5
sS'210002010'
p2801
F0.5
sS'020021010'
p2802
F0.5634454760792579
sS'221211210'
p2803
F0.0
sS'101010202'
p2804
F0.016136565714041786
sS'210102001'
p2805
F0.49978454
sS'220012011'
p2806
F0.5950000000000001
sS'010121212'
p2807
F0.215233605
sS'010202011'
p2808
F0.45
sS'010202010'
p2809
F0.5
sS'002000121'
p2810
F0.5
sS'112022121'
p2811
F0.55
sS'120012001'
p2812
F1.0
sS'120012000'
p2813
F0.5950000000000001
sS'102110220'
p2814
F0.7342795
sS'102110221'
p2815
F1.0
sS'002101212'
p2816
F0.55
sS'120210210'
p2817
F0.55
sS'120210211'
p2818
F1.0
sS'100212120'
p2819
F0.668305
sS'100212121'
p2820
F1.0
sS'012221211'
p2821
F0.0
sS'121210000'
p2822
F0.8035844600821294
sS'121210002'
p2823
F0.87290670858355
sS'201201210'
p2824
F0.0
sS'020001211'
p2825
F0.5
sS'020001210'
p2826
F0.50036168205
sS'202102011'
p2827
F0.55
sS'012021100'
p2828
F0.027894732839131405
sS'222100110'
p2829
F0.0
sS'220021101'
p2830
F0.7365713949999999
sS'112110222'
p2831
F0.0
sS'121201122'
p2832
F0.55
sS'210210021'
p2833
F0.49206905298045
sS'210201210'
p2834
F0.0
sS'110210002'
p2835
F0.826606943812711
sS'110211202'
p2836
F0.001178247405772386
sS'211102200'
p2837
F0.4519986624765833
sS'012211201'
p2838
F0.45
sS'200120001'
p2839
F0.33067243269288565
sS'212021010'
p2840
F0.4905
sS'212021011'
p2841
F0.06206053501175625
sS'011100022'
p2842
F0.45
sS'120112002'
p2843
F0.8321687388238665
sS'120112000'
p2844
F0.5095000000000001
sS'110020000'
p2845
F0.05164843355288293
sS'110020002'
p2846
F0.8062897554999999
sS'001010002'
p2847
F0.056514043176508766
sS'100101220'
p2848
F0.45
sS'100101222'
p2849
F0.0
sS'021122100'
p2850
F0.704755
sS'021122101'
p2851
F0.23914845
sS'120121000'
p2852
F0.23914845
sS'120201001'
p2853
F0.5
sS'120201000'
p2854
F0.5
sS'200122011'
p2855
F0.9507614548908194
sS'112122210'
p2856
F0.0
sS'211200120'
p2857
F0.55
sS'211200121'
p2858
F0.5
sS'221100201'
p2859
F0.5
sS'112002001'
p2860
F0.433945520544316
sS'112002000'
p2861
F0.4672153032012821
sS'200000211'
p2862
F0.5
sS'201100012'
p2863
F0.45
sS'000200110'
p2864
F0.5
sS'111020002'
p2865
F1.0
sS'000200112'
p2866
F0.5
sS'022111000'
p2867
F1.0
sS'012210001'
p2868
F0.505
sS'012210000'
p2869
F0.5950000000000001
sS'000212101'
p2870
F0.5
sS'121202011'
p2871
F0.5
sS'221001010'
p2872
F0.50023
sS'221001012'
p2873
F0.4966649999999999
sS'101201202'
p2874
F0.5
sS'012200011'
p2875
F0.5
sS'012200010'
p2876
F0.55
sS'000021112'
p2877
F0.0014617799220429397
sS'120001102'
p2878
F0.49900064984533643
sS'120120201'
p2879
F0.30220903578647473
sS'201220011'
p2880
F0.645255
sS'121020201'
p2881
F0.8970544339526756
sS'101102212'
p2882
F0.495
sS'121000221'
p2883
F0.82113067877905
sS'000100102'
p2884
F0.5279390497177867
sS'100201210'
p2885
F0.49995
sS'100201212'
p2886
F0.49955
sS'000000001'
p2887
F0.1650859695891962
sS'000000000'
p2888
F0.17374970009622404
sS'021021210'
p2889
F0.6355000000000001
sS'021021211'
p2890
F1.0
sS'121220100'
p2891
F0.456354
sS'121220101'
p2892
F0.32805000000000006
sS'102201012'
p2893
F0.40865887146634367
sS'110122020'
p2894
F0.72440155
sS'110122021'
p2895
F0.505
sS'200210211'
p2896
F0.0
sS'000110020'
p2897
F0.5353095736011535
sS'021112221'
p2898
F0.55
sS'022110201'
p2899
F0.5
sS'012122211'
p2900
F0.0
sS'000101212'
p2901
F0.5
sS'102021210'
p2902
F0.0
sS'212211201'
p2903
F0.0
sS'201111202'
p2904
F1.0
sS'211001122'
p2905
F0.45
sS'010201021'
p2906
F0.5
sS'010201020'
p2907
F0.5
sS'110201002'
p2908
F0.49960404
sS'010121022'
p2909
F0.5
sS'010121020'
p2910
F0.49329449999999997
sS'110100220'
p2911
F0.45
sS'110100222'
p2912
F0.0
sS'102100021'
p2913
F0.5
sS'102100020'
p2914
F0.55
sS'002021010'
p2915
F0.4002675097140649
sS'120022110'
p2916
F0.67195
sS'120022111'
p2917
F1.0
sS'001210221'
p2918
F0.5950000000000001
sS'200001021'
p2919
F0.55
sS'100002000'
p2920
F0.6930749334891587
sS'100002001'
p2921
F0.4956435052717558
sS'002001000'
p2922
F0.500745112559029
sS'002001001'
p2923
F0.4151994988665751
sS'121112212'
p2924
F0.0
sS'101022021'
p2925
F0.5476085155
sS'120102121'
p2926
F1.0
sS'102211212'
p2927
F0.9452905054342439
sS'200212101'
p2928
F0.87290670858355
sS'102211210'
p2929
F0.5
sS'011000200'
p2930
F0.5
sS'011000202'
p2931
F0.59095
sS'202012011'
p2932
F0.5
sS'011020221'
p2933
F0.7608515499999999
sS'002120101'
p2934
F0.7911887374764978
sS'002120100'
p2935
F0.8927841827107199
sS'202000111'
p2936
F1.0
sS'202000110'
p2937
F0.8062897554999999
sS'122112121'
p2938
F1.0
sS'221010012'
p2939
F0.8802555227012139
sS'221010010'
p2940
F0.3936620079522669
sS'021210021'
p2941
F0.5950000000000001
sS'210201001'
p2942
F0.45
sS'210201000'
p2943
F0.49876887579314505
sS'112221210'
p2944
F0.0
sS'120210001'
p2945
F1.0
sS'120210000'
p2946
F0.6355000000000001
sS'112021012'
p2947
F0.0675425858836496
sS'102000010'
p2948
F0.4972871100906453
sS'102000012'
p2949
F0.4687223180094303
sS'112110220'
p2950
F0.29524500000000004
sS'221201010'
p2951
F0.5950000000000001
sS'221201011'
p2952
F1.0
sS'010000200'
p2953
F0.7212817737622752
sS'010000201'
p2954
F0.5
sS'021002112'
p2955
F0.5950000000000001
sS'021002110'
p2956
F0.5
sS'001121122'
p2957
F0.5
sS'211102020'
p2958
F0.5
sS'022100101'
p2959
F0.5
sS'022100100'
p2960
F0.5
sS'012211021'
p2961
F0.14747528837056667
sS'102010120'
p2962
F0.505
sS'102010122'
p2963
F0.9011685554115876
sS'020011012'
p2964
F0.08635726873816266
sS'002010211'
p2965
F0.580860386704355
sS'002010210'
p2966
F0.5950000000000001
sS'212201100'
p2967
F0.501880056940734
sS'212201101'
p2968
F0.495
sS'220011102'
p2969
F0.67195
sS'220011100'
p2970
F0.5
sS'201101002'
p2971
F0.45
sS'122001012'
p2972
F0.5018499999999999
sS'020100201'
p2973
F0.5
sS'121010220'
p2974
F0.8970544339526756
sS'121010221'
p2975
F1.0
sS'011002201'
p2976
F0.5
sS'011002200'
p2977
F0.5
sS'221000001'
p2978
F0.7608515499999999
sS'012201021'
p2979
F0.5
sS'100202001'
p2980
F0.55
sS'100022211'
p2981
F0.45927
sS'012220110'
p2982
F0.6355000000000001
sS'012220111'
p2983
F1.0
sS'212111020'
p2984
F1.0
sS'212002011'
p2985
F0.55
sS'010102102'
p2986
F0.5
sS'220211112'
p2987
F0.9917883983658696
sS'220211110'
p2988
F0.405
sS'102221100'
p2989
F0.026411035827884313
sS'012010201'
p2990
F0.5
sS'012010200'
p2991
F0.704755
sS'100010202'
p2992
F0.044070312199606256
sS'100010200'
p2993
F0.3141430372270828
sS'201212001'
p2994
F0.55
sS'201211200'
p2995
F0.0
sS'000101002'
p2996
F0.4836272076763639
sS'101010220'
p2997
F0.45
sS'101010222'
p2998
F0.0
sS'200101212'
p2999
F0.55
sS'112202211'
p3000
F0.5
sS'200101210'
p3001
F0.48203339679
sS'021212110'
p3002
F1.0
sS'200200101'
p3003
F0.7280465500000001
sS'102110022'
p3004
F0.5950000000000001
sS'122110120'
p3005
F1.0
sS'102110020'
p3006
F0.5
sS'100201000'
p3007
F0.4999995
sS'100201002'
p3008
F0.5
sS'120020011'
p3009
F0.40304490942070287
sS'120020010'
p3010
F0.518671121790821
sS'112022100'
p3011
F0.704755
sS'112022101'
p3012
F0.23914845
sS'110220100'
p3013
F0.009972124215554929
sS'010120012'
p3014
F0.2657205
sS'020102110'
p3015
F0.5
sS'020102112'
p3016
F0.55
sS'210211200'
p3017
F0.0
sS'012120112'
p3018
F0.08338590849833284
sS'100102210'
p3019
F0.449228982035767
sS'100102212'
p3020
F0.5
sS'211022112'
p3021
F0.0
sS'211022110'
p3022
F0.1937102445
sS'100020102'
p3023
F0.9324574141163504
sS'100020100'
p3024
F0.027137685451700894
sS'121002012'
p3025
F0.5
sS'100212102'
p3026
F0.6355000000000001
sS'001000122'
p3027
F0.55
sS'101222112'
p3028
F0.0
sS'110002122'
p3029
F0.5
sS'110002120'
p3030
F0.5
sS'210012211'
p3031
F1.0
sS'001102210'
p3032
F0.49241515096378496
sS'001102212'
p3033
F0.5
sS'020000010'
p3034
F0.5082653532719226
sS'020000011'
p3035
F0.5
sS'021100210'
p3036
F0.4966605856498775
sS'021100212'
p3037
F0.495557147682405
sS'100002211'
p3038
F0.4995
sS'100002210'
p3039
F0.5
sS'000000100'
p3040
F0.0949839404446717
sS'121201102'
p3041
F0.33928783995283585
sS'212000001'
p3042
F0.5
sS'110201212'
p3043
F0.505
sS'210210001'
p3044
F0.405
sS'210210000'
p3045
F0.5950000000000001
sS'011010022'
p3046
F0.0014422475143019428
sS'102221121'
p3047
F2.940291848928256e-15
sS'110211222'
p3048
F0.0
sS'110211220'
p3049
F0.5
sS'001000102'
p3050
F0.5
sS'211102221'
p3051
F0.29524500000000004
sS'221011002'
p3052
F0.8860918339739714
sS'221011000'
p3053
F0.5
sS'000121212'
p3054
F0.465769845
sS'000121210'
p3055
F0.3099732596347212
sS'120112020'
p3056
F0.7342795
sS'120112021'
p3057
F1.0
sS'110020021'
p3058
F0.38993260042748
sS'110020020'
p3059
F0.843094701955
sS'001010022'
p3060
F0.8822041131536149
sS'012002211'
p3061
F0.5
sS'001010020'
p3062
F0.50005
sS'112211122'
p3063
F0.0
sS'001020121'
p3064
F0.01194854260392498
sS'001020120'
p3065
F0.4910946798097
sS'120112120'
p3066
F1.0
sS'210010210'
p3067
F1.0
sS'210101122'
p3068
F0.5
sS'122010012'
p3069
F0.24080364871191462
sS'122010010'
p3070
F0.36402560914464477
sS'001212210'
p3071
F0.5950000000000001
sS'001212211'
p3072
F0.5
sS'101221002'
p3073
F0.87290670858355
sS'101221000'
p3074
F0.7496941359940392
sS'212100112'
p3075
F0.45
sS'000111202'
p3076
F1.0
sS'001122010'
p3077
F0.40279531138273683
sS'202012110'
p3078
F0.5950000000000001
sS'010012000'
p3079
F0.5867994050156745
sS'010012002'
p3080
F0.9627818616291838
sS'120021010'
p3081
F0.24394714322992914
sS'120021012'
p3082
F0.016014457574069094
sS'010210210'
p3083
F1.0
sS'201012210'
p3084
F0.55
sS'201012211'
p3085
F0.36450000000000005
sS'011210002'
p3086
F0.5
sS'001001212'
p3087
F0.4414495313223808
sS'210120100'
p3088
F0.004731253425361123
sS'011200122'
p3089
F0.55
sS'210120102'
p3090
F0.0
sS'000000021'
p3091
F0.8662804867666242
sS'121220121'
p3092
F0.0
sS'110122000'
p3093
F0.6093950197135196
sS'000110002'
p3094
F0.06300635195685825
sS'110122002'
p3095
F0.7342795
sS'021112200'
p3096
F0.4533200144800795
sS'021112201'
p3097
F0.2969280819733599
sS'011201122'
p3098
F0.5
sS'211211220'
p3099
F0.0
sS'102120112'
p3100
F1.0
sS'122001201'
p3101
F0.55
sS'202211121'
p3102
F0.1412147682405
sS'020210001'
p3103
F0.80174593495
sS'020100012'
p3104
F0.5
sS'020100010'
p3105
F0.4999995
sS'000100012'
p3106
F0.45919824488937844
sS'020211201'
p3107
F0.5
sS'221101012'
p3108
F0.45
sS'010112002'
p3109
F0.005164441525548457
sS'221102100'
p3110
F0.55
sS'001222101'
p3111
F0.0
sS'110022112'
p3112
F0.2657205
sS'221102101'
p3113
F0.5
sS'121122201'
p3114
F1.0126029765422702e-57
sS'010200201'
p3115
F0.5
sS'211101220'
p3116
F0.5
sS'211101222'
p3117
F0.0
sS'110201020'
p3118
F0.49995
sS'110201022'
p3119
F0.5
sS'010201002'
p3120
F0.5005
sS'010121002'
p3121
F0.32805000000000006
sS'010201000'
p3122
F0.4994622015817595
sS'100102000'
p3123
F0.4971808705650098
sS'101201212'
p3124
F0.48195
sS'221211000'
p3125
F0.6355000000000001
sS'221211001'
p3126
F1.0
sS'021020001'
p3127
F0.9392116727047154
sS'211122000'
p3128
F0.30593034324338836
sS'211122001'
p3129
F0.0011305504435584572
sS'120100120'
p3130
F1.0
sS'200001000'
p3131
F0.6496424561948984
sS'200001001'
p3132
F0.5
sS'100002021'
p3133
F0.5
sS'210111022'
p3134
F1.0
sS'102212010'
p3135
F0.55
sS'102212011'
p3136
F1.0
sS'201001120'
p3137
F0.5
sS'010120201'
p3138
F0.007578144627267214
sS'010120200'
p3139
F0.3996790476003987
sS'021200112'
p3140
F0.5950000000000001
sS'021200110'
p3141
F0.5
sS'011020201'
p3142
F0.6432031396381601
sS'011020200'
p3143
F0.9002608093545275
sS'011000221'
p3144
F0.5
sS'011000220'
p3145
F0.55
sS'010020201'
p3146
F0.5550719615254001
sS'112222011'
p3147
F0.0
sS'210201021'
p3148
F0.5
sS'011220102'
p3149
F0.5
sS'011220100'
p3150
F0.156905298045
sS'001102000'
p3151
F0.49995763842068836
sS'001102002'
p3152
F0.5005
sS'001122102'
p3153
F0.55
sS'001122100'
p3154
F0.42424751306541886
sS'212110200'
p3155
F0.6355000000000001
sS'212110201'
p3156
F0.5
sS'221102112'
p3157
F0.6355000000000001
sS'101122012'
p3158
F0.5651964091501668
sS'211020201'
p3159
F0.8062897554999999
sS'021100000'
p3160
F0.45362498269730694
sS'200010211'
p3161
F0.29524500000000004
sS'200010210'
p3162
F0.6355000000000001
sS'122011002'
p3163
F0.55
sS'122011000'
p3164
F0.5
sS'212201121'
p3165
F0.32805000000000006
sS'210010000'
p3166
F0.4788156429024511
sS'210010002'
p3167
F0.9607990506328424
sS'220011120'
p3168
F0.5
sS'101221212'
p3169
F0.9452905054342439
sS'020101012'
p3170
F0.5
sS'101221210'
p3171
F0.6484159062324999
sS'201101020'
p3172
F0.5
sS'201101022'
p3173
F0.5
sS'211102120'
p3174
F0.5
sS'001212001'
p3175
F0.5
sS'001212000'
p3176
F0.55
sS'121010200'
p3177
F0.53035312555
sS'121010202'
p3178
F0.44889030117
sS'112020210'
p3179
F0.0
sS'002102011'
p3180
F0.5
sS'002102010'
p3181
F0.5
sS'122211000'
p3182
F0.55
sS'122211001'
p3183
F1.0
sS'212221101'
p3184
F0.9898622202047773
sS'010022110'
p3185
F0.01631669570224474
sS'010022112'
p3186
F0.43991505
sS'212111002'
p3187
F1.0
sS'010102120'
p3188
F0.5
sS'010102122'
p3189
F0.5
sS'112002210'
p3190
F0.5
sS'112002211'
p3191
F0.5
sS'202101201'
p3192
F0.5
sS'111210220'
p3193
F1.0
sS'012210211'
p3194
F1.0
sS'012112122'
p3195
F0.0
sS'012112120'
p3196
F0.19814171355982627
sS'110010222'
p3197
F0.0
sS'110010220'
p3198
F0.29524500000000004
sS'202021101'
p3199
F0.7608515499999999
sS'000101022'
p3200
F0.55
sS'000101020'
p3201
F0.5
sS'000120112'
p3202
F0.003779855234019147
sS'010210000'
p3203
F0.5
sS'010210002'
p3204
F0.9466777350729341
sS'120021201'
p3205
F0.5
sS'022021011'
p3206
F0.82566077995
sS'121020012'
p3207
F0.007699815625017355
sS'121020010'
p3208
F0.005999836511102015
sS'020021011'
p3209
F0.6380722926825468
sS'122110102'
p3210
F1.0
sS'021010102'
p3211
F1.0
sS'210102000'
p3212
F0.5
sS'100201021'
p3213
F0.5
sS'100201020'
p3214
F0.5
sS'102101002'
p3215
F0.505
sS'212020011'
p3216
F0.5950000000000001
sS'020121112'
p3217
F0.0004699452322355186
sS'110202010'
p3218
F0.45
sS'210211221'
p3219
F0.0
sS'110202012'
p3220
F0.5
sS'120111022'
p3221
F1.0
sS'022011102'
p3222
F0.8236209768057663
sS'022011100'
p3223
F0.5
sS'120110212'
p3224
F0.000571685235313495
sS'102102021'
p3225
F0.5
sS'210221010'
p3226
F0.43322975550000004
sS'210221011'
p3227
F0.2657205
sS'001200201'
p3228
F0.55
sS'021111202'
p3229
F1.0
sS'121202010'
p3230
F0.5
sS'000212100'
p3231
F0.9463282834101727
sS'110002102'
p3232
F0.5
sS'012001012'
p3233
F0.5064574500000001
sS'100112212'
p3234
F0.09265100944259205
sS'220110102'
p3235
F0.7608515499999999
sS'220110100'
p3236
F0.5
sS'011010222'
p3237
F0.0
sS'011010220'
p3238
F0.2985255
sS'110220120'
p3239
F0.8062897554999999
sS'110220121'
p3240
F0.0021410651489296587
sS'102111202'
p3241
F1.0
sS'100221001'
p3242
F0.0028464958041961985
sS'100221000'
p3243
F0.6527066311255242
sS'012211020'
p3244
F0.21688293031556644
sS'211102021'
p3245
F0.3781752805346999
sS'120221112'
p3246
F8.177786364368357e-17
sS'120221110'
p3247
F0.22067853813367322
sS'022012101'
p3248
F0.9813178818640704
sS'212010021'
p3249
F0.25268465966938836
sS'102221101'
p3250
F4.3760127491977825e-05
sS'000220111'
p3251
F1.0
sS'000220110'
p3252
F0.829710416024695
sS'221011020'
p3253
F0.5950000000000001
sS'221011021'
p3254
F1.0
sS'001000120'
p3255
F0.50487724
sS'101201022'
p3256
F0.5
sS'101201020'
p3257
F0.4973914845
sS'121110220'
p3258
F0.5
sS'121110222'
p3259
F0.0
sS'122000112'
p3260
F0.55
sS'001020102'
p3261
F0.5507751842850963
sS'122000110'
p3262
F0.505
sS'001020100'
p3263
F0.04054156787088969
sS'120112102'
p3264
F1.0
sS'120002001'
p3265
F0.55
sS'001221001'
p3266
F1.0
sS'001221000'
p3267
F0.8906430485194899
sS'012110122'
p3268
F3.221877211317391e-05
sS'101221020'
p3269
F0.8349089039153499
sS'101221021'
p3270
F1.0
sS'010020012'
p3271
F0.39658793088763944
sS'010020010'
p3272
F0.05259468665748124
sS'000111220'
p3273
F1.0
sS'010012021'
p3274
F0.49920644572218
sS'010012020'
p3275
F0.6341428771271947
sS'021221010'
p3276
F0.55
sS'021221011'
p3277
F1.0
sS'211002120'
p3278
F0.55
sS'211002121'
p3279
F0.3799329525137599
sS'122101102'
p3280
F1.0
sS'011002012'
p3281
F0.5
sS'110222121'
p3282
F0.0
sS'211202211'
p3283
F0.0
sS'201200100'
p3284
F0.55
sS'211211202'
p3285
F0.0
sS'012102201'
p3286
F0.5005
sS'020101201'
p3287
F0.5
sS'020101200'
p3288
F0.55
sS'021011022'
p3289
F0.885616037725195
sS'021011020'
p3290
F0.505
sS'202211100'
p3291
F0.2912299015665934
sS'202211101'
p3292
F0.149970083871411
sS'020201211'
p3293
F0.5
sS'222110112'
p3294
F0.0
sS'021001012'
p3295
F0.496935
sS'210121221'
p3296
F0.5
sS'010112020'
p3297
F0.5
sS'100022001'
p3298
F0.4341085377497202
sS'010112022'
p3299
F0.5
sS'022211121'
p3300
F0.55
sS'211101202'
p3301
F0.5
sS'112120102'
p3302
F1.0
sS'010112122'
p3303
F0.405
sS'010002021'
p3304
F0.5005
sS'012010012'
p3305
F1.0
sS'212210110'
p3306
F1.0
sS'100102021'
p3307
F0.5
sS'100102020'
p3308
F0.55
sS'220120101'
p3309
F0.7038453132595
sS'211122021'
p3310
F0.06078832729528464
sS'021201010'
p3311
F0.50487805
sS'120100102'
p3312
F1.0
sS'020010010'
p3313
F0.24286080380672476
sS'020010012'
p3314
F0.06781898482651323
sS'020000100'
p3315
F0.6702553034013207
sS'111202000'
p3316
F1.0
sS'212001112'
p3317
F0.5
sS'201001102'
p3318
F0.5
sS'200002011'
p3319
F0.55
sS'201102021'
p3320
F0.5
sS'021200010'
p3321
F0.5005
sS'211122102'
p3322
F0.0
sS'010021012'
p3323
F0.006703136207261221
sS'010120221'
p3324
F0.503794
sS'120110022'
p3325
F0.843094701955
sS'120110020'
p3326
F0.5
sS'010210200'
p3327
F0.55
sS'011220120'
p3328
F0.55
sS'011220121'
p3329
F0.04068127539597718
sS'111000022'
p3330
F1.0
sS'221112201'
p3331
F0.019076021223847286
sS'120122010'
p3332
F0.5614190645247059
sS'120122011'
p3333
F0.5
sS'001102021'
p3334
F0.5
sS'001102020'
p3335
F0.5008999999999999
sS'001122120'
p3336
F0.55
sS'001122121'
p3337
F0.405
sS'100112022'
p3338
F0.73132705
sS'012001200'
p3339
F0.5
sS'100112020'
p3340
F0.6402666741004139
sS'201201112'
p3341
F0.45
sS'010222101'
p3342
F0.0
sS'011000212'
p3343
F0.5095000000000001
sS'101210002'
p3344
F0.5759404135907675
sS'212110221'
p3345
F0.67195
sS'102210120'
p3346
F0.5950000000000001
sS'102210121'
p3347
F1.0
sS'021100021'
p3348
F0.5
sS'021100020'
p3349
F0.5
sS'020111002'
p3350
F1.0
sS'122102010'
p3351
F0.5950000000000001
sS'122102011'
p3352
F0.5
sS'122011020'
p3353
F0.55
sS'122011021'
p3354
F1.0
sS'002211112'
p3355
F8.048021202322747e-05
sS'011122200'
p3356
F0.5
sS'011122201'
p3357
F2.62400013045419e-06
sS'221120211'
p3358
F0.9601167784615637
sS'122121112'
p3359
F1.0
sS'202111210'
p3360
F1.0
sS'001212021'
p3361
F0.6355000000000001
sS'000120120'
p3362
F0.8569594339526756
sS'112220121'
p3363
F0.00392758360563947
sS'121121220'
p3364
F0.0
sS'210021210'
p3365
F0.5
sS'112200102'
p3366
F0.497075
sS'201102001'
p3367
F0.49899102345
sS'111220012'
p3368
F1.0
sS'000011200'
p3369
F0.4263311417209264
sS'000011202'
p3370
F0.9422115249750316
sS'010100122'
p3371
F0.5
sS'120021211'
p3372
F0.12709329141645
sS'002011122'
p3373
F0.7729309074834196
sS'002011120'
p3374
F0.5
sS'121102002'
p3375
F0.5950000000000001
sS'121102000'
p3376
F0.49473103346238156
sS'210010021'
p3377
F0.3748069708848556
sS'210010020'
p3378
F0.4593036781358998
sS'110000212'
p3379
F0.5
sS'112012200'
p3380
F0.8811687244998194
sS'112012201'
p3381
F1.0
sS'121212010'
p3382
F0.505
sS'121212012'
p3383
F0.6355000000000001
sS'110212120'
p3384
F0.5
sS'110212122'
p3385
F0.55
sS'111210202'
p3386
F1.0
sS'110010202'
p3387
F0.00011027367932020441
sS'101021212'
p3388
F0.11321855296262869
sS'111102022'
p3389
F1.0
sS'202120110'
p3390
F0.843094701955
sS'202120111'
p3391
F1.0
sS'102021112'
p3392
F0.12055756313345105
sS'210211020'
p3393
F0.3814617714143618
sS'210211021'
p3394
F0.29524500000000004
sS'000021211'
p3395
F0.0020872789589646452
sS'000021210'
p3396
F0.3976479984223793
sS'021000000'
p3397
F0.8663707363226733
sS'021000001'
p3398
F0.6990534660459087
sS'102101212'
p3399
F0.45
sS'010210021'
p3400
F0.49967433922005
sS'010210020'
p3401
F0.5
sS'210102021'
p3402
F0.4831361839749833
sS'021010120'
p3403
F1.0
sS'022011120'
p3404
F0.5
sS'022011121'
p3405
F0.5
sS'000110212'
p3406
F0.5080282722522684
sS'000212121'
p3407
F0.843094701955
sS'020001012'
p3408
F0.5
sS'020001010'
p3409
F0.4999955
sS'012011002'
p3410
F0.521695
sS'012122110'
p3411
F0.36450000000000005
sS'012122112'
p3412
F0.0
sS'021111220'
p3413
F1.0
sS'002012112'
p3414
F0.0
sS'002012110'
p3415
F0.29524500000000004
sS'201210112'
p3416
F1.0
sS'220110120'
p3417
F0.5
sS'220110121'
p3418
F0.5
sS'011010202'
p3419
F0.011515629501746527
sS'102111220'
p3420
F1.0
sS'010120000'
p3421
F0.052163097390935394
sS'012211000'
p3422
F0.35288895328411446
sS'012211002'
p3423
F0.9507614548908194
sS'121012102'
p3424
F1.0
sS'021211212'
p3425
F1.6242319617865989e-88
sS'021211210'
p3426
F0.1412147682405
sS'120200001'
p3427
F0.55
sS'002110210'
p3428
F0.505
sS'002110212'
p3429
F0.5950000000000001
sS'212010001'
p3430
F0.36414844954871745
sS'212010000'
p3431
F0.7342795
sS'220101001'
p3432
F0.45
sS'220101000'
p3433
F0.55
sS'101211222'
p3434
F0.0
sS'102200211'
p3435
F0.55
sS'101201002'
p3436
F0.499905
sS'000001002'
p3437
F0.4929527475689922
sS'000001000'
p3438
F0.08397381725929456
sS'022112211'
p3439
F0.55
sS'121110202'
p3440
F0.29524500000000004
sS'000111022'
p3441
F1.0
sS'211012012'
p3442
F1.0
sS'112000000'
p3443
F0.4072524112097222
sS'112000002'
p3444
F0.4888149175413616
sS'010021201'
p3445
F0.5
sS'010021200'
p3446
F0.5093375665547215
sS'011020012'
p3447
F0.0039940441390663006
sS'110200120'
p3448
F0.49929615
sS'120201201'
p3449
F0.55
sS'012200211'
p3450
F0.5
sS'221120001'
p3451
F0.6355000000000001
sS'122020110'
p3452
F0.705675045420814
sS'122020111'
p3453
F1.0
sS'122211210'
p3454
F0.6355000000000001
sS'110112022'
p3455
F0.45
sS'122221011'
p3456
F0.7608515499999999
sS'101020021'
p3457
F0.36450000000000005
sS'221112012'
p3458
F0.9709251314984799
sS'221112010'
p3459
F0.2901053241469593
sS'011202010'
p3460
F0.5
sS'011202012'
p3461
F0.5
sS'122101120'
p3462
F1.0
sS'020002101'
p3463
F0.7342795
sS'121222101'
p3464
F0.0
sS'002122111'
p3465
F1.0
sS'002122011'
p3466
F0.5
sS'000210121'
p3467
F0.5
sS'000210120'
p3468
F0.9459924861751536
sS'012121120'
p3469
F0.16123999835514702
sS'102201102'
p3470
F0.5
sS'102201100'
p3471
F0.4895156813464598
sS'102202101'
p3472
F0.8970544339526756
sS'220111201'
p3473
F1.0
sS'210110002'
p3474
F0.51634
sS'101220211'
p3475
F0.405
sS'020101221'
p3476
F0.5
sS'200020011'
p3477
F0.9225424772436568
sS'021011002'
p3478
F0.7796680500280401
sS'010221112'
p3479
F0.15952203621013683
sS'121122021'
p3480
F0.0
sS'221210010'
p3481
F0.55
sS'010200021'
p3482
F0.5
sS'102101020'
p3483
F0.5
sS'102101022'
p3484
F0.55
sS'110222100'
p3485
F0.0
sS'101021022'
p3486
F0.8062897554999999
sS'101021020'
p3487
F0.32805000000000006
sS'022201111'
p3488
F1.0
sS'201200211'
p3489
F0.0
sS'202201110'
p3490
F0.5950000000000001
sS'022211100'
p3491
F0.49815
sS'022211101'
p3492
F0.405
sS'101202201'
p3493
F0.5950000000000001
sS'202201111'
p3494
F1.0
sS'211121020'
p3495
F0.32805000000000006
sS'211121022'
p3496
F0.0
sS'120211002'
p3497
F0.3139953232280078
sS'120211000'
p3498
F0.4998511
sS'012000112'
p3499
F0.45
sS'112120120'
p3500
F1.0
sS'211021122'
p3501
F0.0
sS'211021120'
p3502
F0.22066717005
sS'010002000'
p3503
F0.5461409551884135
sS'010002001'
p3504
F0.4954040590416969
sS'202101012'
p3505
F0.5
sS'202101010'
p3506
F0.45
sS'220100011'
p3507
F0.45
sS'220100010'
p3508
F0.499991
sS'111202021'
p3509
F1.0
sS'210200001'
p3510
F0.5
sS'211212100'
p3511
F1.0
sS'000112201'
p3512
F0.31889037146423155
sS'000112200'
p3513
F0.3476064829308346
sS'111000220'
p3514
F1.0
sS'201020211'
p3515
F0.8821026884852422
sS'000010102'
p3516
F0.053018957504851444
sS'110021212'
p3517
F0.12709329141645
sS'011222121'
p3518
F0.0
sS'100220101'
p3519
F0.00733194537002327
sS'100220100'
p3520
F0.014994484406494896
sS'120110002'
p3521
F0.7775810394820124
sS'021120112'
p3522
F6.277721671885498e-05
sS'002012100'
p3523
F0.9288726321927467
sS'000112221'
p3524
F0.5
sS'012211012'
p3525
F1.0
sS'212110020'
p3526
F0.55
sS'212110021'
p3527
F0.19652161388807166
sS'012001221'
p3528
F0.5
sS'100112002'
p3529
F0.020720246804248336
sS'211220112'
p3530
F0.0
sS'211220110'
p3531
F0.32805000000000006
sS'201101200'
p3532
F0.5161950000000001
sS'201101202'
p3533
F0.55
sS'002021001'
p3534
F0.038826331972869034
sS'100221210'
p3535
F0.54018130357
sS'100221211'
p3536
F0.405
sS'002121210'
p3537
F0.0
sS'020111020'
p3538
F1.0
sS'011122221'
p3539
F0.9556853094017375
sS'112220100'
p3540
F0.0006383395684893936
sS'112220101'
p3541
F0.0003298024484008402
sS'121021012'
p3542
F3.099907212537215e-05
sS'022120101'
p3543
F0.87290670858355
sS'020111122'
p3544
F1.0
sS'100200000'
p3545
F0.732378523868322
sS'100200001'
p3546
F0.4103456951150782
sS'121121202'
p3547
F0.054709494565756175
sS'121121200'
p3548
F0.00668011018858624
sS'101210020'
p3549
F0.5
sS'000001212'
p3550
F0.5
sS'101210022'
p3551
F0.5950000000000001
sS'000001210'
p3552
F0.4659025633101721
sS'102102010'
p3553
F0.45
sS'102102012'
p3554
F0.0
sS'011202201'
p3555
F0.5
sS'022101211'
p3556
F0.45
sS'000011221'
p3557
F0.5
sS'000011220'
p3558
F0.5950000000000001
sS'222101010'
p3559
F0.0
sS'200011120'
p3560
F0.5
sS'002011102'
p3561
F0.019662876518096183
sS'121102020'
p3562
F0.55
sS'121102021'
p3563
F0.5
sS'202110010'
p3564
F0.45
sS'112202010'
p3565
F0.5
sS'112202011'
p3566
F0.45
sS'112102120'
p3567
F1.0
sS'101220120'
p3568
F0.8970544339526756
sS'101220121'
p3569
F0.12709329141645
sS'110212102'
p3570
F0.5
sS'100000012'
p3571
F0.4629240618127253
sS'010110022'
p3572
F0.002081927335597283
sS'101002102'
p3573
F0.5
sS'000002010'
p3574
F0.6066544656539573
sS'210211000'
p3575
F0.36450000000000005
sS'120202110'
p3576
F0.55
sS'210211002'
p3577
F0.935396201177594
sS'021000021'
p3578
F0.7342795
sS'200120121'
p3579
F0.0016625625316594628
sS'121221112'
p3580
F0.0
sS'120120100'
p3581
F1.0
sS'010122012'
p3582
F0.5
sS'010122010'
p3583
F0.448290250310867
sS'000002100'
p3584
F0.7775233089589498
sS'000002101'
p3585
F0.6807861409213052
sS'120011200'
p3586
F0.5135500000000001
sS'221111221'
p3587
F1.0
sS'220111012'
p3588
F1.0
sS'120000010'
p3589
F0.499971326036037
sS'012102012'
p3590
F0.0
sS'012102010'
p3591
F0.45
sS'210110212'
p3592
F1.0
sS'012011020'
p3593
F0.38104746555686136
sS'012011022'
p3594
F0.6355000000000001
sS'022110102'
p3595
F0.6355000000000001
sS'022110100'
p3596
F0.5
sS'202100001'
p3597
F0.4857020975766591
sS'100210120'
p3598
F0.5045
sS'100210122'
p3599
F0.8970544339526756
sS'102022110'
p3600
F0.67195
sS'102022111'
p3601
F1.0
sS'201002112'
p3602
F0.55
sS'201002110'
p3603
F0.5
sS'200210101'
p3604
F0.8180366133019624
sS'200210100'
p3605
F0.9452905054342439
sS'011121220'
p3606
F0.405
sS'011121222'
p3607
F0.0
sS'202001121'
p3608
F0.5
sS'221012001'
p3609
F0.8587852317595001
sS'210212001'
p3610
F0.6355000000000001
sS'122201121'
p3611
F0.5950000000000001
sS'221011200'
p3612
F0.9828315808985374
sS'221011201'
p3613
F1.0
sS'200112012'
p3614
F0.6355000000000001
sS'210200211'
p3615
F0.0
sS'021220011'
p3616
F0.7608515499999999
sS'121012120'
p3617
F1.0
sS'012212011'
p3618
F1.0
sS'120211212'
p3619
F4.644452229433665e-47
sS'120211210'
p3620
F0.1452727810731622
sS'220101021'
p3621
F0.5
sS'011102002'
p3622
F0.5
sS'200012112'
p3623
F0.9166140915016672
sS'200012110'
p3624
F0.505
sS'102002011'
p3625
F0.5095000000000001
sS'020000211'
p3626
F0.5
sS'100021210'
p3627
F0.28732481284641653
sS'100021212'
p3628
F0.26829087416383934
sS'110120122'
p3629
F1.0
sS'000001020'
p3630
F0.5233696230928134
sS'112101022'
p3631
F0.45
sS'022102101'
p3632
F0.5
sS'011212012'
p3633
F1.0
sS'020010201'
p3634
F0.5
sS'021210201'
p3635
F0.5950000000000001
sS'021102021'
p3636
F0.5
sS'002000100'
p3637
F0.7242826606668494
sS'002000101'
p3638
F0.5
sS'112000021'
p3639
F0.4783210602096402
sS'112000020'
p3640
F0.4875284514197027
sS'121200210'
p3641
F0.5333612916925001
sS'121200211'
p3642
F0.6097737682405002
sS'010021221'
p3643
F0.5
sS'110200102'
p3644
F0.504793
sS'012001201'
p3645
F0.45
sS'201012012'
p3646
F0.55
sS'201012010'
p3647
F0.5
sS'002021211'
p3648
F0.0
sS'211120201'
p3649
F0.1124729568231976
sS'102201120'
p3650
F0.5
sS'002121000'
p3651
F0.03311128636777749
sS'000210100'
p3652
F0.9345350705910942
sS'211210200'
p3653
F0.0
sS'020001121'
p3654
F0.5
sS'000100210'
p3655
F0.4584488038645427
sS'210110020'
p3656
F0.4472618982603071
sS'210110022'
p3657
F0.5950000000000001
sS'020001120'
p3658
F0.5
sS'111201022'
p3659
F1.0
sS'001020112'
p3660
F0.003289997601954261
sS'101012002'
p3661
F0.8453311716174932
sS'121122000'
p3662
F0.7342795
sS'121122001'
p3663
F0.215233605
sS'010200000'
p3664
F0.7477927535185936
sS'010200001'
p3665
F0.45279858277374807
sS'201101220'
p3666
F0.5950000000000001
sS'201101221'
p3667
F1.0
sS'112020112'
p3668
F0.07055281718043943
sS'100200211'
p3669
F0.49905
sS'100200210'
p3670
F0.5009289703993
sS'012112200'
p3671
F0.5950000000000001
sS'012112201'
p3672
F0.5095000000000001
sS'221001102'
p3673
F0.55
sS'221001100'
p3674
F0.5
sS'021121200'
p3675
F0.704755
sS'021121201'
p3676
F1.0
sS'111220201'
p3677
F1.0
sS'222011112'
p3678
F0.0
sS'022101001'
p3679
F0.45
sS'022101000'
p3680
F0.55
sS'111002200'
p3681
F1.0
sS'211122201'
p3682
F4.8189481370075325e-24
sS'201212101'
p3683
F1.0
sS'111122221'
p3684
F1.0
sS'110022010'
p3685
F0.29524500000000004
sS'110022012'
p3686
F0.5905
sS'202110201'
p3687
F0.55
sS'001012012'
p3688
F0.5
sS'010201201'
p3689
F0.5
sS'010201200'
p3690
F0.5005
sS'101021002'
p3691
F0.007963289459842083
sS'101020201'
p3692
F0.8478641051614152
sS'101020200'
p3693
F0.689474095731861
sS'212212111'
p3694
F1.0
sS'012020110'
p3695
F0.24107908485310076
sS'012020112'
p3696
F0.1303226257547217
sS'020112021'
p3697
F0.5
sS'211000212'
p3698
F0.6355000000000001
sS'000120211'
p3699
F0.0027701934012084187
sS'000120210'
p3700
F0.34426953918822495
sS'221002101'
p3701
F0.5
sS'012221010'
p3702
F0.00046949043616523005
sS'012221011'
p3703
F6.977138814312027e-05
sS'120211020'
p3704
F0.55
sS'120211021'
p3705
F1.0
sS'202010101'
p3706
F0.32805000000000006
sS'202010100'
p3707
F0.42607002049291165
sS'012101122'
p3708
F0.5
sS'111000202'
p3709
F1.0
sS'000010122'
p3710
F0.9306501324635349
sS'000010120'
p3711
F0.5
sS'011222100'
p3712
F0.0
sS'100220121'
p3713
F0.31067249012910003
sS'212110000'
p3714
F0.505
sS'212110002'
p3715
F0.5905
sS'212010211'
p3716
F1.0
sS'101122212'
p3717
F0.704755
sS'101122210'
p3718
F0.15394963940684483
sS'121101022'
p3719
F0.405
sS'200102110'
p3720
F0.49905
sS'200102112'
p3721
F0.48645
sS'122011200'
p3722
F0.5950000000000001
sS'122011201'
p3723
F1.0
sS'210011002'
p3724
F0.5045
sS'210122110'
p3725
F0.00010595399064486956
sS'011122020'
p3726
F0.55
sS'011122021'
p3727
F0.4016159138385776
sS'120011221'
p3728
F1.0
sS'000201100'
p3729
F0.4934545050184629
sS'000201102'
p3730
F0.5
sS'200112201'
p3731
F0.17601431815087146
sS'102112120'
p3732
F1.0
sS'002100112'
p3733
F0.45
sS'101102022'
p3734
F0.55
sS'002102211'
p3735
F0.5
sS'112122010'
p3736
F0.405
sS'112122012'
p3737
F0.0
sS'101102020'
p3738
F0.5
sS'101210220'
p3739
F0.55
sS'220001001'
p3740
F0.55
sS'010211002'
p3741
F0.028941799975993263
sS'100021000'
p3742
F0.052340652744553094
sS'100021002'
p3743
F0.40555287041549937
sS'100200021'
p3744
F0.5
sS'102200001'
p3745
F0.7847663949999999
sS'111020200'
p3746
F1.0
sS'010012221'
p3747
F0.545
sS'121211122'
p3748
F1.0
sS'022111201'
p3749
F1.0
sS'121102221'
p3750
F0.5950000000000001
sS'201021120'
p3751
F0.55
sS'201021121'
p3752
F1.0
sS'002200011'
p3753
F0.55
sS'001120210'
p3754
F0.2743787445727895
sS'001120212'
p3755
F0.495
sS'001202112'
p3756
F0.55
sS'200011102'
p3757
F0.53344
sS'102001221'
p3758
F0.5950000000000001
sS'012012021'
p3759
F0.5
sS'121200001'
p3760
F0.5
sS'121200000'
p3761
F0.6978149759227065
sS'100012021'
p3762
F1.0
sS'100012020'
p3763
F0.6314500000000001
sS'210102121'
p3764
F0.410014329141645
sS'100121122'
p3765
F1.0
sS'100011222'
p3766
F0.0
sS'100011220'
p3767
F0.45
sS'101220100'
p3768
F0.00555180462823313
sS'101220102'
p3769
F0.885616037725195
sS'020021211'
p3770
F0.7577850640643501
sS'210021211'
p3771
F0.09265100944259205
sS'000122110'
p3772
F0.6235132879020531
sS'000122112'
p3773
F0.7360619821966449
sS'101002120'
p3774
F0.5
sS'211112220'
p3775
F0.026167381651368022
sS'101002122'
p3776
F0.55
sS'110202210'
p3777
F0.5
sS'110202211'
p3778
F0.5
sS'200120101'
p3779
F0.0047568069205954555
sS'200120100'
p3780
F0.008037245139376547
sS'000002121'
p3781
F0.7154572670758066
sS'012011220'
p3782
F0.5
sS'012011221'
p3783
F0.5
sS'101202012'
p3784
F0.5
sS'120212011'
p3785
F1.0
sS'101202010'
p3786
F0.5
sS'221111200'
p3787
F1.0
sS'120000121'
p3788
F0.45
sS'120000120'
p3789
F0.8025947019549999
sS'000211021'
p3790
F0.5
sS'022110120'
p3791
F0.5
sS'022110121'
p3792
F0.5
sS'001220001'
p3793
F0.7618894186463889
sS'200210121'
p3794
F0.8606044339526755
sS'020211102'
p3795
F0.9327726058344429
sS'020211100'
p3796
F0.49995
sS'122100021'
p3797
F0.5
sS'202001101'
p3798
F0.36450000000000005
sS'202001100'
p3799
F0.47392631782033845
sS'011121202'
p3800
F0.12709329141645
sS'122111212'
p3801
F1.0
sS'021121012'
p3802
F6.450350390852075e-05
sS'021012210'
p3803
F0.44264750517208734
sS'021012211'
p3804
F0.4251528
sS'002111020'
p3805
F1.0
sS'110022201'
p3806
F0.55
sS'002012211'
p3807
F0.659755
sS'010212100'
p3808
F0.5
sS'000202011'
p3809
F0.5459499999999999
sS'011102020'
p3810
F0.5
sS'011102022'
p3811
F0.5
sS'001012201'
p3812
F0.4986
sS'001012200'
p3813
F0.5014
sS'000221110'
p3814
F0.496206
sS'000221112'
p3815
F0.45114317721538433
sS'101022120'
p3816
F0.5
sS'101022121'
p3817
F0.45
sS'021101212'
p3818
F0.3443877191070009
sS'020212101'
p3819
F0.55
sS'210101212'
p3820
F0.45
sS'221100112'
p3821
F0.29524500000000004
sS'021102001'
p3822
F0.499709745
sS'021102000'
p3823
F0.5000294714
sS'001200120'
p3824
F0.5
sS'122201100'
p3825
F0.5005
sS'122201101'
p3826
F0.5095000000000001
sS'200021011'
p3827
F0.5968830762955001
sS'200021010'
p3828
F0.49850642391976496
sS'212200110'
p3829
F0.55
sS'212200111'
p3830
F1.0
sS'220010112'
p3831
F0.9166140915016672
sS'220010110'
p3832
F0.36450000000000005
sS'000112012'
p3833
F0.013779424823431086
sS'201102210'
p3834
F0.42821206270195683
sS'201102211'
p3835
F0.31017157230426595
sS'010120102'
p3836
F0.405
sS'201011022'
p3837
F0.8970544339526756
sS'021210121'
p3838
F1.0
sS'201020001'
p3839
F0.9324574141163504
sS'212011120'
p3840
F0.18172662890892408
sS'211020021'
p3841
F0.7608515499999999
sS'102122101'
p3842
F1.0
sS'021110002'
p3843
F0.505
sS'212012110'
p3844
F1.0
sS'220001211'
p3845
F0.55
sS'100020010'
p3846
F0.07783932713023854
sS'100020012'
p3847
F0.373160377031356
sS'121022001'
p3848
F0.454141372005
sS'021021102'
p3849
F0.3265130189589843
sS'021021100'
p3850
F0.022439479889015807
sS'200000100'
p3851
F0.6920466663579589
sS'200000101'
p3852
F0.6801556281985742
sS'220112211'
p3853
F0.005387631832152908
sS'210011212'
p3854
F1.0
sS'201121120'
p3855
F0.405
sS'220210101'
p3856
F0.87290670858355
sS'001021210'
p3857
F0.3079637466822302
sS'001021212'
p3858
F0.18648982293491878
sS'211120221'
p3859
F0.7342795
sS'002121021'
p3860
F0.47385
sS'200001211'
p3861
F0.455
sS'111200200'
p3862
F1.0
sS'012201120'
p3863
F0.5
sS'012201121'
p3864
F0.45000017940255654
sS'200201110'
p3865
F0.5045
sS'200201112'
p3866
F0.5
sS'011012122'
p3867
F1.0
sS'101012020'
p3868
F0.5
sS'101012022'
p3869
F0.8970544339526756
sS'010211212'
p3870
F1.0
sS'121021200'
p3871
F0.82566077995
sS'121021201'
p3872
F1.0
sS'001002121'
p3873
F0.5
sS'001002120'
p3874
F0.55
sS'211202010'
p3875
F0.55
sS'211202011'
p3876
F0.5
sS'221001120'
p3877
F0.5
sS'221001121'
p3878
F1.0
sS'020120121'
p3879
F0.0
sS'111012022'
p3880
F1.0
sS'022101021'
p3881
F0.5
sS'111002221'
p3882
F1.0
sS'012102211'
p3883
F0.5
sS'111122200'
p3884
F1.0
sS'221021100'
p3885
F0.5950000000000001
sS'221021101'
p3886
F1.0
sS'011200210'
p3887
F0.5
sS'011200212'
p3888
F0.5950000000000001
sS'101212200'
p3889
F0.5855000000000001
sS'101212201'
p3890
F1.0
sS'020200101'
p3891
F0.55
sS'021110122'
p3892
F1.0
sS'010201221'
p3893
F0.5
sS'002221011'
p3894
F0.7342795
sS'012112221'
p3895
F0.6355000000000001
sS'021101020'
p3896
F0.45
sS'021101022'
p3897
F0.5950000000000001
sS'122210100'
p3898
F0.87290670858355
sS'122210101'
p3899
F1.0
sS'020112001'
p3900
F0.5
sS'020112000'
p3901
F0.5005
sS'011022021'
p3902
F0.7342795
sS'120012120'
p3903
F0.6355000000000001
sS'120012121'
p3904
F1.0
sS'012012102'
p3905
F0.0
sS'000012121'
p3906
F0.7884526154711619
sS'000012120'
p3907
F0.9319732930196459
sS'212000110'
p3908
F0.5
sS'212000112'
p3909
F0.5
sS'221012211'
p3910
F0.23914845
sS'202010121'
p3911
F0.4357562563057725
sS'122111002'
p3912
F1.0
sS'002101012'
p3913
F0.4995
sS'212211112'
p3914
F1.0
sS'222100011'
p3915
F0.0
sS'000121012'
p3916
F0.006221988205966302
sS'210011020'
p3917
F0.4457365989430552
sS'210011022'
p3918
F0.704755
sS'011021220'
p3919
F0.704755
sS'011021221'
p3920
F1.0
sS'212101102'
p3921
F0.45
sS'000201121'
p3922
F0.5
sS'000201120'
p3923
F0.5
sS'021012001'
p3924
F0.8021909613536238
sS'212021110'
p3925
F0.003900706537870855
sS'200102211'
p3926
F0.49228819605
sS'212021112'
p3927
F0.0
sS'210021012'
p3928
F0.0
sS'210021010'
p3929
F0.29524500000000004
sS'001010122'
p3930
F1.0
sS'101210200'
p3931
F0.5
sS'101210202'
p3932
F0.704755
sS'222121101'
p3933
F0.0
sS'210000100'
p3934
F0.4757497188964887
sS'210000102'
p3935
F0.503856160377252
sS'100021021'
p3936
F0.32805000000000006
sS'100021020'
p3937
F0.4163154776286056
sS'111020221'
p3938
F1.0
sS'121102200'
p3939
F0.39844294106013317
sS'121102201'
p3940
F0.2679953137795962
sS'201010002'
p3941
F0.9608812953720579
sS'212120010'
p3942
F0.36273274278165
sS'212120011'
p3943
F0.06078832729528464
sS'010220001'
p3944
F0.05099252194923882
sS'011212200'
p3945
F0.55
sS'011212201'
p3946
F0.5
sS'010012201'
p3947
F0.5
sS'010012200'
p3948
F0.67195
sS'202111012'
p3949
F1.0
sS'210101022'
p3950
F0.5
sS'210101020'
p3951
F0.49923134999999996
sS'220112001'
p3952
F0.5
sS'121000000'
p3953
F0.5
sS'102001201'
p3954
F0.45
sS'211210012'
p3955
F1.0
sS'012012001'
p3956
F0.5
sS'012012000'
p3957
F0.704755
sS'121200021'
p3958
F0.55
sS'102121102'
p3959
F1.0
sS'010211020'
p3960
F0.4505941553322752
sS'010211022'
p3961
F0.008341583675893651
sS'100012002'
p3962
F0.7763889382025697
sS'100012000'
p3963
F0.51355
sS'000021012'
p3964
F0.023710203040833464
sS'100011202'
p3965
F0.05840287576879748
sS'000021010'
p3966
F0.039596237438632
sS'021000201'
p3967
F0.7342795
sS'110102220'
p3968
F0.55
sS'110102221'
p3969
F0.5
sS'200221101'
p3970
F0.7608515499999999
sS'211112202'
p3971
F0.9788044208623918
sS'110122200'
p3972
F0.7342795
sS'211112200'
p3973
F0.18498419558968937
sS'000000120'
p3974
F0.6458929385419313
sS'000000121'
p3975
F0.4131903071761479
sS'122101200'
p3976
F0.55
sS'122101201'
p3977
F0.5
sS'201122001'
p3978
F0.1002794586904967
sS'001021000'
p3979
F0.054558320878483356
sS'001021002'
p3980
F0.04770804787707076
sS'221101210'
p3981
F0.514
sS'221101212'
p3982
F0.6355000000000001
sS'012011200'
p3983
F0.5
sS'012011202'
p3984
F0.5950000000000001
sS'210012102'
p3985
F0.55
sS'210012100'
p3986
F0.5
sS'112100002'
p3987
F0.45
sS'212121100'
p3988
F0.0015452503028854714
sS'212121102'
p3989
F0.0
sS'211010212'
p3990
F1.0
sS'020211120'
p3991
F0.5
sS'020211121'
p3992
F0.5
sS'102100102'
p3993
F1.0
sS'122100001'
p3994
F0.5
sS'122100000'
p3995
F0.67195
sS'002110012'
p3996
F0.41400000000000003
sS'011102220'
p3997
F0.5
sS'011102221'
p3998
F0.5
sS'120000102'
p3999
F0.8053348859308
sS'120000100'
p4000
F0.757363383309963
sS'211021200'
p4001
F0.6659888291416451
sS'211021201'
p4002
F1.0
sS'101212012'
p4003
F0.5
sS'001012221'
p4004
F0.5950000000000001
sS'011200000'
p4005
F0.5
sS'011200002'
p4006
F0.5950000000000001
sS'102002211'
p4007
F0.5950000000000001
sS'211012210'
p4008
F1.0
sS'101022100'
p4009
F0.405
sS'101022102'
p4010
F0.843094701955
sS'210221100'
p4011
F0.5110783233985
sS'210221101'
p4012
F0.5953539105865
sS'012120201'
p4013
F0.0
sS'101121202'
p4014
F0.12173372791849794
sS'012202101'
p4015
F0.5
sS'001000210'
p4016
F0.4616977007222214
sS'221121000'
p4017
F0.7847663949999999
sS'001000212'
p4018
F0.5005
sS'122112000'
p4019
F0.5950000000000001
sS'122112001'
p4020
F1.0
sS'221010112'
p4021
F1.0
sS'202112010'
p4022
F0.67195
sS'202112011'
p4023
F0.17283550774049997
sS'010120120'
p4024
F0.49734
sS'010120122'
p4025
F0.5
sS'021210100'
p4026
F1.0
sS'210201120'
p4027
F0.505333
sS'210201121'
p4028
F0.5
sS'120210120'
p4029
F0.87290670858355
sS'120210121'
p4030
F1.0
sS'002101201'
p4031
F0.405
sS'002101200'
p4032
F0.55
sS'200010010'
p4033
F0.4687489227845314
sS'200010012'
p4034
F0.955110012581091
sS'211020001'
p4035
F0.005656335331083707
sS'211020000'
p4036
F0.012607660590384491
sS'022112001'
p4037
F0.5950000000000001
sS'221201110'
p4038
F0.5
sS'210020001'
p4039
F0.37087949878694226
sS'010212010'
p4040
F1.0
sS'010000120'
p4041
F0.5
sS'010000122'
p4042
F0.5
sS'021022110'
p4043
F0.8406387700104933
sS'021022111'
p4044
F1.0
sS'100212210'
p4045
F0.5
sS'100212211'
p4046
F1.0
sS'201110200'
p4047
F0.39080748773943846
sS'021021120'
p4048
F0.0
sS'220121001'
p4049
F0.55
sS'210100012'
p4050
F0.4545
sS'200000121'
p4051
F0.7178871269897009
sS'112200021'
p4052
F0.5
sS'100211202'
p4053
F0.004069301187810915
sS'012021001'
p4054
F0.0011281803228679601
sS'101012220'
p4055
F0.5950000000000001
sS'101012221'
p4056
F1.0
sS'012100021'
p4057
F0.5
sS'012100020'
p4058
F0.5
sS'122001112'
p4059
F0.48645
sS'000011020'
p4060
F0.5493456180989851
sS'000011022'
p4061
F0.9701254136831132
sS'100210102'
p4062
F0.4822771092957453
sS'111200221'
p4063
F1.0
sS'021002011'
p4064
F0.505
sS'021002010'
p4065
F0.500005
sS'112202110'
p4066
F0.5
sS'201221100'
p4067
F0.55
sS'201221101'
p4068
F1.0
sS'012220011'
p4069
F0.4656905298045
sS'001002102'
p4070
F0.5
sS'001002100'
p4071
F0.4943895800036224
sS'200211001'
p4072
F0.36450000000000005
sS'021101002'
p4073
F0.502695
sS'022010112'
p4074
F0.005355774912187302
sS'022010110'
p4075
F0.29524500000000004
sS'211210221'
p4076
F0.0
sS'012201100'
p4077
F0.47717764377586286
sS'012201102'
p4078
F0.48660014115
sS'012112020'
p4079
F0.29366238471276274
sS'012112021'
p4080
F0.20717669199076824
sS'000101122'
p4081
F0.5
sS'201211120'
p4082
F1.0
sS'100100202'
p4083
F0.4937717137819633
sS'211000122'
p4084
F0.55
sS'100201122'
p4085
F0.5
sS'010011022'
p4086
F0.0020368987267959807
sS'020120101'
p4087
F0.400502306369305
sS'020120100'
p4088
F0.8372898094187079
sS'211010022'
p4089
F0.7438766387544999
sS'100121220'
p4090
F0.5
sS'211010020'
p4091
F0.4415403634091397
sS'100121221'
p4092
F0.2657205
sS'120220101'
p4093
F0.6355000000000001
sS'120012100'
p4094
F0.5095000000000001
sS'211100220'
p4095
F0.5
sS'211100221'
p4096
F0.495
sS'011022001'
p4097
F0.002648129439692357
sS'011022000'
p4098
F0.8130822924917505
sS'000012102'
p4099
F0.9663278865837821
sS'000012100'
p4100
F0.8857215298068933
sS'102220110'
p4101
F0.7033117335191642
sS'102220111'
p4102
F1.0
sS'220100211'
p4103
F0.5
sS'002111002'
p4104
F1.0
sS'001212112'
p4105
F1.0
sS'210122101'
p4106
F0.018367010460105217
sS'112100212'
p4107
F0.405
sS'002201011'
p4108
F0.49987670500000003
sS'002201010'
p4109
F0.4935790542929104
sS'001022112'
p4110
F0.34066978862013964
sS'001022110'
p4111
F0.405
sS'002002101'
p4112
F0.7342795
sS'021201001'
p4113
F1.0
sS'021201000'
p4114
F0.68024667205
sS'020000110'
p4115
F0.5109725938914541
sS'020000112'
p4116
F0.4919475510568761
sS'012021201'
p4117
F0.0
sS'202121010'
p4118
F0.455486895
sS'112001212'
p4119
F0.45
sS'201002211'
p4120
F0.5
sS'211102000'
p4121
F0.499779
sS'011021200'
p4122
F0.5587512898283291
sS'011021202'
p4123
F0.704755
sS'211102002'
p4124
F0.5
sS'121002112'
p4125
F0.505
sS'122111020'
p4126
F1.0
sS'201010021'
p4127
F0.9640236134736045
sS'201010020'
p4128
F0.5950000000000001
sS'210112012'
p4129
F1.0
sS'120011122'
p4130
F0.505
sS'001000020'
p4131
F0.6713494497827249
sS'001000021'
p4132
F0.5
sS'221121211'
p4133
F1.0
sS'221121210'
p4134
F0.9709251314984799
sS'021012021'
p4135
F0.8587852317595001
sS'110020102'
p4136
F0.7164823549012345
sS'112000221'
p4137
F0.55
sS'210000121'
p4138
F0.499905
sS'210000120'
p4139
F0.5
sS'120201102'
p4140
F0.4862324611474539
sS'120201100'
p4141
F0.49066617574116983
sS'100122010'
p4142
F0.40230577368950154
sS'100122012'
p4143
F0.7608515499999999
sS'210101002'
p4144
F0.45
sS'200211021'
p4145
F0.55
sS'122010112'
p4146
F0.0023444939108415736
sS'221210001'
p4147
F0.6355000000000001
sS'102011212'
p4148
F0.5095000000000001
sS'021102210'
p4149
F0.4902325139456576
sS'021102211'
p4150
F0.3747114800218362
sS'020221110'
p4151
F0.883434145557408
sS'020221111'
p4152
F1.0
sS'012210102'
p4153
F0.6355000000000001
sS'012210100'
p4154
F0.50890663
sS'202210110'
p4155
F0.9716934199102841
sS'202210111'
p4156
F1.0
sS'010220121'
p4157
F0.048405388819032814
sS'010012120'
p4158
F0.5
sS'111221221'
p4159
F1.0
sS'102121120'
p4160
F1.0
sS'120201120'
p4161
F0.5
sS'101100222'
p4162
F0.0
sS'122211211'
p4163
F1.0
sS'101100220'
p4164
F0.45
sS'102102210'
p4165
F0.5
sS'102102211'
p4166
F0.5
sS'120202101'
p4167
F0.5
sS'210211120'
p4168
F0.27357297828289684
sS'120021112'
p4169
F0.11892653006271768
sS'110102200'
p4170
F0.4582827252405237
sS'110102202'
p4171
F0.5950000000000001
sS'022001110'
p4172
F0.405
sS'110122221'
p4173
F0.5950000000000001
sS'022001112'
p4174
F0.5
sS'210100201'
p4175
F0.499455
sS'210100200'
p4176
F0.5005
sS'000000102'
p4177
F0.6593109380426371
sS'122101221'
p4178
F0.5
sS'021112120'
p4179
F1.0
sS'201011122'
p4180
F1.0
sS'001021021'
p4181
F1.0
sS'001021020'
p4182
F0.7636686021727255
sS'112100020'
p4183
F0.47714099709474994
sS'112100022'
p4184
F0.55
sS'122021010'
p4185
F0.5169272464045
sS'122021011'
p4186
F0.36450000000000005
sS'002100100'
p4187
F0.4989444465934288
sS'002100102'
p4188
F0.5950000000000001
sS'201000112'
p4189
F0.45
sS'120000001'
p4190
F0.4975466179735014
sS'101000212'
p4191
F0.49956354000000003
sS'200110012'
p4192
F0.5379156549999999
sS'011102200'
p4193
F0.4914594710674121
sS'011102202'
p4194
F0.545
sS'210002121'
p4195
F0.496935
sS'210012120'
p4196
F0.55
sS'210012121'
p4197
F0.370836524501145
sS'100102120'
p4198
F1.0
sS'101112022'
p4199
F0.45
sS'022210110'
p4200
F0.9648209552275304
sS'221110002'
p4201
F0.6355000000000001
sS'221110000'
p4202
F0.5257450000000001
sS'201200101'
p4203
F0.5
sS'121110022'
p4204
F0.5
sS'011200021'
p4205
F0.5
sS'011200020'
p4206
F0.55
sS'102212110'
p4207
F0.5
sS'102212112'
p4208
F0.0
sS'210221121'
p4209
F0.8587852317595001
sS'101121222'
p4210
F0.0
sS'021200011'
p4211
F0.5095000000000001
sS'101121220'
p4212
F0.5
sS'010202121'
p4213
F0.5
sS'002120001'
p4214
F0.6711804338163173
sS'120122211'
p4215
F0.405
sS'020112210'
p4216
F0.18222548403541797
sS'020112211'
p4217
F0.11569788203499222
sS'002210101'
p4218
F0.53967097287034
sS'002210100'
p4219
F0.9441965818964669
sS'112201200'
p4220
F0.5014
sS'112201201'
p4221
F0.45
sS'112100122'
p4222
F1.0
sS'112222110'
p4223
F0.0
sS'012101202'
p4224
F0.5
sS'012101200'
p4225
F0.5
sS'211212201'
p4226
F0.0
sS'210201100'
p4227
F0.5010806349955871
sS'210201102'
p4228
F0.502342795
sS'120210100'
p4229
F0.8342110070587733
sS'120210102'
p4230
F0.8285817328208888
sS'001210002'
p4231
F0.9294446361709299
sS'000010200'
p4232
F0.41197842499974624
sS'000010201'
p4233
F0.40146723841032356
sS'121120012'
p4234
F2.351032390858543e-05
sS'002101221'
p4235
F0.5
sS'001102122'
p4236
F0.5
sS'001102120'
p4237
F0.5
sS'201201102'
p4238
F0.5
sS'211221121'
p4239
F1.0
sS'211221120'
p4240
F0.67195
sS'012001210'
p4241
F0.5
sS'201110220'
p4242
F0.5950000000000001
sS'201110221'
p4243
F0.5
sS'022100001'
p4244
F0.5
sS'001001122'
p4245
F0.5
sS'000102100'
p4246
F0.49979345
sS'000102102'
p4247
F0.5950000000000001
sS'021100122'
p4248
F0.5
sS'021100120'
p4249
F0.5
sS'112200001'
p4250
F0.48861021244499997
sS'112200000'
p4251
F0.8055436876514849
sS'210010122'
p4252
F0.9738849878926601
sS'210010120'
p4253
F0.44279066614753715
sS'101012200'
p4254
F0.5180500000000001
sS'101012202'
p4255
F0.8970544339526756
sS'001212121'
p4256
F1.0
sS'202011021'
p4257
F0.55
sS'012100002'
p4258
F0.5
sS'012100000'
p4259
F0.41344857732490164
sS'002112102'
p4260
F0.0
sS'002112100'
p4261
F0.32805000000000006
sS'000011002'
p4262
F0.08709690535050776
sS'121010122'
p4263
F1.0
sS'010000102'
p4264
F0.4991593635938701
sS'002021011'
p4265
F0.0015381476569499629
sS'112012002'
p4266
F0.0
sS'112012000'
p4267
F0.405
sS'101122021'
p4268
F0.383516077995
sS'100122201'
p4269
F0.20169874419091158
sS'101200021'
p4270
F0.5
sS'101200020'
p4271
F0.8062897554999999
sS'102210112'
p4272
F0.14796902682886498
sS'102001012'
p4273
F0.4189393463947131
sS'002020101'
p4274
F0.8407801919035383
sS'122002110'
p4275
F0.55
sS'122002111'
p4276
F1.0
sS'000211210'
p4277
F0.2657205
sS'000211212'
p4278
F0.9730026686082676
sS'200111122'
p4279
F1.0
sS'102020110'
p4280
F0.5801838560643158
sS'102020101'
p4281
F0.8766321585696429
sS'102020100'
p4282
F0.8277439275807633
sS'012112000'
p4283
F0.32805000000000006
sS'012112002'
p4284
F0.0
sS'012012211'
p4285
F1.0
sS'211000012'
p4286
F0.4645
sS'112112022'
p4287
F0.0
sS'112112020'
p4288
F0.1937102445
sS'000120012'
p4289
F0.3767365493543519
sS'000120010'
p4290
F0.05388914155329169
sS'010210122'
p4291
F0.954213785791141
sS'010210120'
p4292
F0.5
sS'121020112'
p4293
F0.06850270890372046
sS'110200122'
p4294
F0.5950000000000001
sS'100201102'
p4295
F0.5
sS'210102120'
p4296
F0.5
sS'112120212'
p4297
F0.0
sS'211100200'
p4298
F0.4995756
sS'211100202'
p4299
F0.5
sS'110202112'
p4300
F0.5
sS'201011202'
p4301
F0.8959105943299274
sS'201011200'
p4302
F0.36450000000000005
sS'222010110'
p4303
F0.0
sS'121202110'
p4304
F0.5
sS'121202112'
p4305
F0.6355000000000001
sS'000121122'
p4306
F0.5
sS'201211102'
p4307
F1.0
sS'100100221'
p4308
F0.47404187686296
sS'100100220'
p4309
F0.49316202181466995
sS'001200121'
p4310
F0.5
sS'212112010'
p4311
F1.0
sS'110002221'
p4312
F0.55
sS'102202011'
p4313
F0.55
sS'000002211'
p4314
F0.5
sS'021211012'
p4315
F0.015183892112945088
sS'211010002'
p4316
F0.6777176032736856
sS'211011202'
p4317
F0.45
sS'101000002'
p4318
F0.6436599914900605
sS'121201002'
p4319
F0.49439383605000004
sS'121201000'
p4320
F0.4996935
sS'210210102'
p4321
F0.5947453279
sS'210210100'
p4322
F0.5
sS'221122011'
p4323
F0.9507614548908194
sS'201010000'
p4324
F0.4775248299328901
sS'001000000'
p4325
F0.08639947573850548
sS'001000002'
p4326
F0.5734574992580752
sS'212001201'
p4327
F0.5
sS'101112220'
p4328
F0.405
sS'101112222'
p4329
F0.0
sS'021110212'
p4330
F0.0005447169262003167
sS'211200021'
p4331
F0.55
sS'112000201'
p4332
F0.405
sS'112000200'
p4333
F0.8155477765335645
sS'112211221'
p4334
F1.0
sS'112211220'
p4335
F0.67195
sS'120102010'
p4336
F0.5
sS'120102012'
p4337
F0.55
sS'122000011'
p4338
F0.5
sS'122000010'
p4339
F0.5005
sS'012000210'
p4340
F0.55
sS'002120211'
p4341
F0.0
sS'200211000'
p4342
F0.4392122066156953
sS'112201012'
p4343
F0.3166984972005679
sS'012210120'
p4344
F0.47518543080547093
sS'012210121'
p4345
F0.43761473176484994
sS'210202101'
p4346
F0.5
sS'010220101'
p4347
F0.0018526789253495543
sS'010220100'
p4348
F0.21760345941439269
sS'220010211'
p4349
F0.23552003682311445
sS'010012102'
p4350
F0.5
sS'021221112'
p4351
F0.0443146905982625
sS'021221110'
p4352
F0.47657205
sS'101100202'
p4353
F0.45
sS'121120221'
p4354
F0.0
sS'110021122'
p4355
F0.5
sS'001120012'
p4356
F0.0037840025472947207
sS'120201121'
p4357
F0.5
sS'122101020'
p4358
F0.55
sS'122101021'
p4359
F0.5
sS'020110210'
p4360
F0.3241079537974304
sS'020110212'
p4361
F0.8472430079370044
sS'022100211'
p4362
F0.5
sS'220121211'
p4363
F0.9556853094017375
sS'020012112'
p4364
F0.8587852317595001
sS'022210111'
p4365
F1.0
sS'020012110'
p4366
F0.7951138238391943
sS'210120201'
p4367
F0.485595
sS'210100221'
p4368
F0.5
sS'122120001'
p4369
F0.55
sS'102010012'
p4370
F0.19622406450323443
sS'222001110'
p4371
F0.0
sS'022001211'
p4372
F0.5
sS'021112102'
p4373
F1.0
sS'012022101'
p4374
F0.61842102445
sS'012111022'
p4375
F1.0
sS'001110222'
p4376
F0.0
sS'000211000'
p4377
F0.39649855387743455
sS'001110220'
p4378
F0.45
sS'000211002'
p4379
F0.08192828253593994
sS'211001002'
p4380
F0.405
sS'200100100'
p4381
F0.449898946315361
sS'200100102'
p4382
F0.5562047668375492
sS'002100121'
p4383
F0.5
sS'002100120'
p4384
F0.5
sS'020020101'
p4385
F0.759584110244981
sS'010002201'
p4386
F0.5
sS'212122101'
p4387
F0.9998150057574824
sS'010201102'
p4388
F0.49954024845
sS'110221210'
p4389
F0.29524500000000004
sS'220012101'
p4390
F0.5905
sS'110221212'
p4391
F0.885616037725195
sS'200121210'
p4392
F0.39701831346
sS'200121211'
p4393
F0.12795282240216282
sS'211021020'
p4394
F0.7342795
sS'211021021'
p4395
F1.0
sS'102102001'
p4396
F0.5
sS'112120020'
p4397
F0.759163402639816
sS'112120021'
p4398
F0.09809883674399955
sS'201022011'
p4399
F0.67195
sS'210002101'
p4400
F0.5
sS'210002100'
p4401
F0.5
sS'221110020'
p4402
F0.6355000000000001
sS'221110021'
p4403
F0.5180500000000001
sS'120100221'
p4404
F0.5
sS'201200121'
p4405
F0.843094701955
sS'200002111'
p4406
F1.0
sS'200002110'
p4407
F0.80174593495
sS'000212011'
p4408
F0.5
sS'211222101'
p4409
F0.0
sS'121012210'
p4410
F0.37003247241241494
sS'121202101'
p4411
F0.5
sS'101020102'
p4412
F0.7294849038728993
sS'010202101'
p4413
F0.5
sS'010202100'
p4414
F0.5
sS'002210121'
p4415
F0.55
sS'112201221'
p4416
F0.5
sS'100102102'
p4417
F1.0
sS'121221012'
p4418
F1.842324386096459e-18
sS'121221010'
p4419
F0.3645134941931668
sS'012101220'
p4420
F0.5
sS'012101221'
p4421
F0.5
sS'112221112'
p4422
F0.0
sS'221012110'
p4423
F1.0
sS'000010221'
p4424
F0.9409618922095504
sS'120122110'
p4425
F1.0
sS'100020211'
p4426
F0.02269240258370503
sS'100020210'
p4427
F0.37666586110898864
sS'001102102'
p4428
F0.5
sS'211221102'
p4429
F0.0
sS'211221100'
p4430
F0.36450000000000005
sS'001121002'
p4431
F0.014389434123862664
sS'202102101'
p4432
F0.55
sS'110202100'
p4433
F0.405
sS'021201210'
p4434
F0.55
sS'021201211'
p4435
F1.0
sS'012021012'
p4436
F0.3239017150326119
sS'012021010'
p4437
F0.005225258192561197
sS'021100102'
p4438
F0.5
sS'000102120'
p4439
F0.55
sS'002010112'
p4440
F0.0028435093629160103
sS'121201212'
p4441
F0.32805000000000006
sS'121201210'
p4442
F0.4905
sS'122102110'
p4443
F1.0
sS'122121010'
p4444
F0.45
sS'122121012'
p4445
F0.704755
sS'000201201'
p4446
F0.5
sS'001212100'
p4447
F1.0
sS'221212011'
p4448
F0.5
sS'200112102'
p4449
F0.7608515499999999
sS'200112100'
p4450
F0.4334343534805214
sS'202011001'
p4451
F0.32805000000000006
sS'202011000'
p4452
F0.5950000000000001
sS'002112120'
p4453
F0.5
sS'002112121'
p4454
F0.48452449999999997
sS'202201011'
p4455
F0.5455
sS'122212111'
p4456
F1.0
sS'122212110'
p4457
F0.5
sS'220000101'
p4458
F0.73132705
sS'021122010'
p4459
F0.6352184140965296
sS'021122011'
p4460
F0.22469390820838378
sS'210001021'
p4461
F0.5
sS'210001020'
p4462
F0.5
sS'112012020'
p4463
F0.7847663949999999
sS'112012021'
p4464
F1.0
sS'120102201'
p4465
F0.55
sS'100000210'
p4466
F0.46347528249446185
sS'100000212'
p4467
F0.5
sS'101200002'
p4468
F0.7203515500000001
sS'101200000'
p4469
F0.6352693613077202
sS'210010102'
p4470
F0.5407066021557407
sS'220211211'
p4471
F0.0
sS'102010201'
p4472
F1.0
sS'102010200'
p4473
F0.55
sS'112102020'
p4474
F0.6355000000000001
sS'112102021'
p4475
F0.5095000000000001
sS'010122210'
p4476
F0.35266882394766175
sS'010122211'
p4477
F0.07588117673348291
sS'121012212'
p4478
F0.013906419472184673
sS'102020121'
p4479
F0.9166140915016672
sS'102120021'
p4480
F0.5
sS'202120011'
p4481
F0.8679651281520058
sS'010210102'
p4482
F0.5
sS'020110000'
p4483
F0.5
sS'020110002'
p4484
F0.849859225485333
sS'211200210'
p4485
F0.0
sS'122110002'
p4486
F0.8587852317595001
sS'122110000'
p4487
F0.5
sS'002111221'
p4488
F1.0
sS'012000201'
p4489
F0.5
sS'210102100'
p4490
F0.49995
sS'210102102'
p4491
F0.5
sS'121220010'
p4492
F0.48645134860802797
sS'121220011'
p4493
F0.405
sS'100220211'
p4494
F0.48195
sS'201011220'
p4495
F0.5
sS'201011221'
p4496
F1.0
sS'211022211'
p4497
F0.049238545109180555
sS'001200102'
p4498
F0.5
sS'001200100'
p4499
F0.48776209842866325
sS'000212001'
p4500
F0.7608515499999999
sS'110002201'
p4501
F0.5
sS'110002200'
p4502
F0.8223352317595
sS'002012011'
p4503
F0.5
sS'002012010'
p4504
F0.704755
sS'211201200'
p4505
F0.0
sS'112001220'
p4506
F0.5
sS'121201120'
p4507
F0.45
sS'211011222'
p4508
F0.0
sS'211011220'
p4509
F0.23914845
sS'121012020'
p4510
F0.907348990557408
sS'121012021'
p4511
F1.0
sS'121201020'
p4512
F0.55
sS'121201021'
p4513
F1.0
sS'101000020'
p4514
F0.7589680753546342
sS'210210120'
p4515
F0.5
sS'210210121'
p4516
F0.4290291206543333
sS'200121001'
p4517
F0.27596384397914875
sS'200121000'
p4518
F0.39135138953476306
sS'220101120'
p4519
F0.5
sS'220101121'
p4520
F0.5
sS'101112202'
p4521
F0.00797056361454152
sS'212121121'
p4522
F0.0
sS'212121120'
p4523
F0.026167381651368022
sS'211200001'
p4524
F0.45
sS'211200000'
p4525
F0.49995
sS'012002110'
p4526
F0.5
sS'012002112'
p4527
F0.0
sS'112211202'
p4528
F0.9709251314984799
sS'112211200'
p4529
F0.5297950000000001
sS'100221102'
p4530
F0.16819097902678196
sS'100221100'
p4531
F0.01415187970331654
sS'112200120'
p4532
F0.4228794600325166
sS'100222101'
p4533
F0.0
sS'001020001'
p4534
F0.09255372578346614
sS'112000122'
p4535
F0.5
sS'112000120'
p4536
F0.47132932388377385
sS'001221102'
p4537
F0.2240311414652293
sS'001221100'
p4538
F0.3311583292756664
sS'100012201'
p4539
F1.0
sS'100012200'
p4540
F0.5950000000000001
sS'122020011'
p4541
F0.55
sS'112200210'
p4542
F0.5
sS'112200211'
p4543
F0.5
sS'221120121'
p4544
F0.0
sS'011221200'
p4545
F0.6829028605
sS'112021102'
p4546
F0.16057371189997655
sS'122221111'
p4547
F1.0
sS'122221110'
p4548
F0.997680801156706
sS'121120200'
p4549
F0.00627421942232311
sS'121120201'
p4550
F0.0011092656172311303
sS'212111212'
p4551
F1.0
sS'011202112'
p4552
F0.5
sS'221000112'
p4553
F0.55
sS'221000110'
p4554
F0.5
sS'212001211'
p4555
F0.45
sS'212100210'
p4556
F0.55
sS'212100211'
p4557
F0.45
sS'221212111'
p4558
F1.0
sS'000110122'
p4559
F0.5
sS'001100212'
p4560
F0.5
sS'011201002'
p4561
F0.4995
sS'220011012'
p4562
F0.7814409324990886
sS'200020110'
p4563
F0.8011720338543907
sS'122101000'
p4564
F0.5
sS'122101002'
p4565
F0.5950000000000001
sS'200100121'
p4566
F0.4507109863525763
sS'200100120'
p4567
F0.5
sS'122100201'
p4568
F0.55
sS'211001022'
p4569
F0.489462897555
sS'100202112'
p4570
F0.5
sS'100202110'
p4571
F0.5
sS'212002101'
p4572
F0.5
sS'200122101'
p4573
F0.843094701955
sS'211021000'
p4574
F0.005160452777893514
sS'211021002'
p4575
F0.0
sS'112120000'
p4576
F0.00845424185073843
sS'012000012'
p4577
F0.55
sS'112120002'
p4578
F0.812220563094468
sS'012000010'
p4579
F0.4459517143002554
sS'220211001'
p4580
F0.5
sS'221110221'
p4581
F0.6355000000000001
sS'211200112'
p4582
F0.5
sS'201122211'
p4583
F1.583486018726256e-21
sS'202101112'
p4584
F0.5
sS'100120210'
p4585
F0.018914599401477397
sS'100120212'
p4586
F0.159669188030715
sS'000211020'
p4587
F0.5944706657386848
sS'001110202'
p4588
F0.02065029452406327
sS'212112201'
p4589
F0.5950000000000001
sS'120100201'
p4590
F0.4928400495
sS'120100200'
p4591
F0.6580979468417671
sS'200200011'
p4592
F0.55
sS'201001201'
p4593
F1.0
sS'201001200'
p4594
F0.7847663949999999
sS'011120220'
p4595
F0.545
sS'011120221'
p4596
F0.55680445
sS'120020101'
p4597
F0.36450000000000005
sS'120020100'
p4598
F0.8477629401266888
sS'122110210'
p4599
F0.5
sS'010201120'
p4600
F0.5
sS'010201122'
p4601
F0.5
sS'012101022'
p4602
F0.5
sS'012101020'
p4603
F0.4952675793585807
sS'211212021'
p4604
F0.55
sS'112022010'
p4605
F0.4905
sS'112022011'
p4606
F0.23914845
sS'110220010'
p4607
F0.0042551828339165145
sS'110220012'
p4608
F0.6444221462228668
sS'000010020'
p4609
F0.910319027684193
sS'000010021'
p4610
F0.9208565121811413
sS'002001100'
p4611
F0.49534251713783595
sS'012102001'
p4612
F0.50004
sS'012102000'
p4613
F0.5
sS'211022001'
p4614
F0.0035834867062513147
sS'002001102'
p4615
F0.5
sS'012120001'
p4616
F0.011552988919275205
sS'012120000'
p4617
F0.03271727243420548
sS'120001212'
p4618
F0.4501133871507353
sS'201010212'
p4619
F0.9843681278893468
sS'201010210'
p4620
F0.36450000000000005
sS'211211002'
p4621
F0.36450000000000005
sS'122000001'
p4622
F0.776735731
sS'100212012'
p4623
F0.55
sS'100212010'
p4624
F0.5
sS'112011022'
p4625
F0.17433922005
sS'112212010'
p4626
F1.0
sS'101222001'
p4627
F0.0
sS'211201012'
p4628
F0.405
sS'201121210'
p4629
F0.17433922005
sS'201121212'
p4630
F0.0
sS'110012212'
p4631
F1.0
sS'001022211'
p4632
F6.848283210826342e-05
sS'221200110'
p4633
F0.55
sS'221200111'
p4634
F1.0
sS'210000201'
p4635
F0.5
sS'221102211'
p4636
F0.23914845
sS'201101122'
p4637
F0.5
sS'200010112'
p4638
F0.8756510315685733
sS'010022010'
p4639
F0.46232074561424663
sS'010212211'
p4640
F1.0
sS'201210100'
p4641
F1.0
sS'200112120'
p4642
F0.5950000000000001
sS'200112121'
p4643
F0.39698642700000003
sS'201202011'
p4644
F0.5
sS'000102121'
p4645
F0.5
sS'001121020'
p4646
F0.4545
sS'001121022'
p4647
F0.5
sS'210001002'
p4648
F0.5005
sS'212111122'
p4649
F1.0
sS'210001000'
p4650
F0.47526592385594624
sS'221221111'
p4651
F1.0
sS'221221110'
p4652
F0.5
sS'002112001'
p4653
F0.34845739406971526
sS'002112000'
p4654
F0.39903087933845965
sS'010100221'
p4655
F0.5
sS'010100220'
p4656
F0.5
sS'001020211'
p4657
F0.005576872416601614
sS'001020210'
p4658
F0.40230704604634837
sS'120112212'
p4659
F1.523001830621388e-51
sS'120112210'
p4660
F0.11159898858594151
sS'002011221'
p4661
F0.55
sS'011012212'
p4662
F1.0
sS'200211210'
p4663
F0.0
sS'210120012'
p4664
F0.0
sS'112202112'
p4665
F0.0
sS'210120010'
p4666
F0.006138866129854054
sS'111120022'
p4667
F1.0
sS'200211010'
p4668
F0.4007707761683248
sS'112102000'
p4669
F0.405
sS'212100000'
p4670
F0.5
sS'112102002'
p4671
F0.0
sS'102121200'
p4672
F0.0
sS'011221012'
p4673
F0.12709329141645
sS'020210112'
p4674
F0.8630521043185563
sS'020210110'
p4675
F0.8186746929827711
sS'011022201'
p4676
F0.7847663949999999
sS'010122112'
p4677
F0.29524500000000004
sS'200111221'
p4678
F1.0
sS'122110020'
p4679
F0.5
sS'122110021'
p4680
F1.0
sS'020110021'
p4681
F0.5
sS'020110020'
p4682
F0.5950000000000001
sS'220210011'
p4683
F0.5950000000000001
sS'220011201'
p4684
F0.5
sS'011201212'
p4685
F0.5
sS'221210211'
p4686
F0.0
sS'020100100'
p4687
F0.5
sS'102120001'
p4688
F0.29524500000000004
sS'102120000'
p4689
F0.704405497630616
sS'102022011'
p4690
F0.55
sS'012121012'
p4691
F0.156905298045
sS'202121211'
p4692
F0.0
sS'000020110'
p4693
F0.05085849909976485
sS'000020112'
p4694
F0.01868321698075301
sS'100120000'
p4695
F0.02693379469629198
sS'201002011'
p4696
F0.5
sS'201002010'
p4697
F0.5
sS'221101102'
p4698
F0.5
sS'122200110'
p4699
F0.5950000000000001
sS'122200111'
p4700
F1.0
sS'210212121'
p4701
F0.5950000000000001
sS'020121210'
p4702
F0.4554869325086179
sS'020121211'
p4703
F0.11715898404833286
sS'121012000'
p4704
F0.8546675981180104
sS'121012002'
p4705
F0.9005285904375869
sS'012212110'
p4706
F1.0
sS'221011210'
p4707
F0.215233605
sS'120221211'
p4708
F0.7608515499999999
sS'200121021'
p4709
F0.55
sS'010102201'
p4710
F0.5
sS'010102200'
p4711
F0.5
sS'201102000'
p4712
F0.50171
sS'212010102'
p4713
F0.6355000000000001
sS'212010100'
p4714
F0.38385829860697096
sS'220101100'
p4715
F0.5
sS'220101102'
p4716
F0.5
sS'200012011'
p4717
F0.5
sS'200012010'
p4718
F0.7342795
sS'120001000'
p4719
F0.4712033694740693
sS'120001002'
p4720
F0.499995
sS'221211112'
p4721
F1.0
sS'021020112'
p4722
F0.002023130495187717
sS'021020110'
p4723
F0.005802398840287429
sS'020010121'
p4724
F0.5
sS'020010120'
p4725
F0.55
sS'200001112'
p4726
F0.36450000000000005
sS'100221120'
p4727
F0.18694167214802992
sS'100221121'
p4728
F0.12709329141645
sS'021211200'
p4729
F0.9826312493480781
sS'021211201'
p4730
F1.0
sS'201121020'
p4731
F0.5950000000000001
sS'201121021'
p4732
F1.0
sS'112000102'
p4733
F0.405
sS'110220201'
p4734
F0.7608515499999999
sS'001221120'
p4735
F0.6355000000000001
sS'001221121'
p4736
F1.0
sS'110200221'
p4737
F0.55
sS'012110002'
p4738
F0.45
sS'121001122'
p4739
F0.45
sS'221120100'
p4740
F0.4079264647545
sS'221120101'
p4741
F0.23914845
sS'002211021'
p4742
F0.6355000000000001
sS'022121011'
p4743
F0.405
sS'011220010'
p4744
F0.006984040890835089
sS'011220012'
p4745
F0.704755
sS'112021122'
p4746
F0.7608515499999999
sS'112021120'
p4747
F0.15589887850944223
sS'001020021'
p4748
F0.82566077995
sS'101002210'
p4749
F0.49911842999456574
sS'110121022'
p4750
F0.5
sS'221000101'
p4751
F0.5
sS'221000100'
p4752
F0.5950000000000001
sS'221102001'
p4753
F0.5
sS'002121120'
p4754
F0.7847663949999999
sS'002121121'
p4755
F0.00038179434224881053
sS'211002021'
p4756
F0.4751031599487552
sS'001211122'
p4757
F1.0
sS'101200212'
p4758
F0.55
sS'101200210'
p4759
F0.5110015460256999
sS'210121002'
p4760
F0.0
sS'210121000'
p4761
F0.2657205
sS'211001220'
p4762
F0.55
sS'211001221'
p4763
F1.0
sS'011201020'
p4764
F0.5
sS'011201022'
p4765
F0.5
sS'020201110'
p4766
F0.5095000000000001
sS'020201112'
p4767
F0.497061
sS'222110211'
p4768
F0.0
sS'002102101'
p4769
F0.5
sS'002102100'
p4770
F0.5455
sS'122211112'
p4771
F0.0
sS'111220120'
p4772
F1.0
sS'212221011'
p4773
F0.9324574141163504
sS'022101120'
p4774
F0.5
sS'022101121'
p4775
F0.5
sS'002112021'
p4776
F0.5950000000000001
sS'221020110'
p4777
F0.8703503338579079
sS'221020111'
p4778
F1.0
sS'221110200'
p4779
F0.6355000000000001
sS'221110201'
p4780
F0.5
sS'121212121'
p4781
F1.0
sS'012020011'
p4782
F0.21933922005
sS'012020010'
p4783
F0.35086284917797184
sS'102021021'
p4784
F0.5
sS'102012210'
p4785
F0.5950000000000001
sS'102012211'
p4786
F1.0
sS'022021101'
p4787
F0.8062897554999999
sS'012221110'
p4788
F0.00018660109329617745
sS'012221112'
p4789
F5.544104901872822e-08
sS'011120200'
p4790
F0.32599222276248263
sS'011120202'
p4791
F0.5719500000000001
sS'021010012'
p4792
F0.035414517663032205
sS'020021101'
p4793
F0.007189906369328786
sS'020021100'
p4794
F0.03665957694874499
sS'000010000'
p4795
F0.09024860979422186
sS'020121000'
p4796
F0.49412198996712
sS'000010002'
p4797
F0.07912657577927255
sS'212020101'
p4798
F0.5145301080899533
sS'112121220'
p4799
F0.0
sS'100220001'
p4800
F0.014802776277329906
sS'001122021'
p4801
F0.4790351201419498
sS'012120021'
p4802
F0.19562306242485464
sS'112010202'
p4803
F0.907348990557408
sS'112010200'
p4804
F0.8466012565424674
sS'110002012'
p4805
F0.45404999999999995
sS'200102011'
p4806
F0.499635945
sS'200102010'
p4807
F0.49998280500000003
sS'220110010'
p4808
F0.32805000000000006
sS'220110012'
p4809
F0.9606305748937476
sS'122011120'
p4810
F0.5
sS'122011122'
p4811
F0.5950000000000001
sS'211212000'
p4812
F0.55
sS'211212001'
p4813
F0.45
sS'012101002'
p4814
F0.5
sS'201102102'
p4815
F0.5
sS'201102100'
p4816
F0.4992075
sS'000201021'
p4817
F0.55
sS'012100201'
p4818
F0.45
sS'012100200'
p4819
F0.50095
sS'120221001'
p4820
F0.87290670858355
sS'102221010'
p4821
F0.11855461070976968
sS'102221011'
p4822
F0.0002711940988659726
sS'001121220'
p4823
F0.55
sS'001121221'
p4824
F1.0
sS'100021122'
p4825
F0.5950000000000001
sS'100021120'
p4826
F0.3619455446467328
sS'002200111'
p4827
F1.0
sS'002200110'
p4828
F0.55
sS'102210100'
p4829
F0.5097034781069499
sS'212201001'
p4830
F0.5
sS'201120010'
p4831
F0.026225557175096482
sS'000200001'
p4832
F0.6807441102300856
sS'201120012'
p4833
F0.0
sS'102210102'
p4834
F0.2819744018549419
sS'010100202'
p4835
F0.48905897444999996
sS'010100200'
p4836
F0.47682706220373416
sS'211012120'
p4837
F1.0
sS'200011221'
p4838
F0.5950000000000001
sS'001202011'
p4839
F0.405
sS'001202010'
p4840
F0.5
sS'120002112'
p4841
F0.5950000000000001
sS'211112212'
p4842
F1.0
sS'002011201'
p4843
F0.505
sS'002011200'
p4844
F0.704755
sS'121200120'
p4845
F0.885616037725195
sS'121200121'
p4846
F0.5
sS'010020100'
p4847
F0.0702291076026569
sS'010020102'
p4848
F0.6853915093346301
sS'102000112'
p4849
F0.405
sS'212100021'
p4850
F0.5
sS'110212002'
p4851
F0.8970544339526756
sS'110212000'
p4852
F0.5085500000000001
sS'000122011'
p4853
F0.47608208094418614
sS'000122010'
p4854
F0.5415692796475108
sS'011220201'
p4855
F0.7847663949999999
sS'102121221'
p4856
F0.0
sS'222211101'
p4857
F0.0
sS'010001212'
p4858
F0.5
sS'022011021'
p4859
F0.5
sS'200111200'
p4860
F1.0
sS'001220112'
p4861
F0.44614800000000004
sS'010021210'
p4862
F0.30026416499999997
sS'001220110'
p4863
F0.27882642555
sS'020012211'
p4864
F0.6355000000000001
sS'210100102'
p4865
F0.4545
sS'120212110'
p4866
F0.5
sS'120212112'
p4867
F0.67195
sS'111022012'
p4868
F1.0
sS'021001102'
p4869
F0.5
sS'202211010'
p4870
F0.5950000000000001
sS'202211011'
p4871
F0.156905298045
sS'222110001'
p4872
F0.0
sS'020100121'
p4873
F0.45
sS'020100120'
p4874
F0.5
sS'210220110'
p4875
F0.5
sS'210220111'
p4876
F1.0
sS'100120021'
p4877
F0.29524500000000004
sS'100120020'
p4878
F0.82566077995
sS'221101122'
p4879
F0.5
sS'221101120'
p4880
F0.5
sS'200210001'
p4881
F0.7619974791415832
sS'100022112'
p4882
F0.7608515499999999
sS'100022110'
p4883
F0.36450000000000005
sS'210212100'
p4884
F0.55
sS'210212101'
p4885
F0.5
sS'001002010'
p4886
F0.49970285585465074
sS'001002012'
p4887
F0.5
sS'021010201'
p4888
F0.5135500000000001
sS'021010200'
p4889
F0.9556468669831971
sS'010102221'
p4890
F0.5
sS'212010120'
p4891
F0.27477924235291845
sS'010112212'
p4892
F1.0
sS'000202111'
p4893
F1.0
sS'000202110'
p4894
F0.55
sS'210112210'
p4895
F1.0
sS'201210210'
p4896
F0.0
sS'101102002'
p4897
F0.5095000000000001
sS'021120021'
p4898
F0.0
sS'000221011'
p4899
F0.6088896590530196
sS'000221010'
p4900
F0.5405916849256993
sS'220100121'
p4901
F0.5
sS'212210001'
p4902
F0.5950000000000001
sS'120001021'
p4903
F0.5
sS'120001020'
p4904
F0.5
sS'201112002'
p4905
F0.9800147477982869
sS'201112000'
p4906
F0.42783954694149084
sS'120100012'
p4907
F0.5
sS'020010102'
p4908
F0.9619977488699969
sS'020010100'
p4909
F0.5107761550000001
sS'102012001'
p4910
F1.0
sS'102012000'
p4911
F0.55
sS'201001012'
p4912
F0.32805000000000006
sS'212001001'
p4913
F0.4894817547724663
sS'212001000'
p4914
F0.5
sS'120011212'
p4915
F0.07962920679973914
sS'220010011'
p4916
F0.36450000000000005
sS'220010010'
p4917
F0.4265927634284894
sS'220110201'
p4918
F0.55
sS'111212200'
p4919
F1.0
sS'110200201'
p4920
F0.5
sS'110200200'
p4921
F0.813570201955
sS'012110020'
p4922
F0.3806918628142128
sS'012110022'
p4923
F0.55
sS'221112000'
p4924
F0.6355000000000001
sS'201220110'
p4925
F0.5
sS'201220111'
p4926
F1.0
sS'110210212'
p4927
F1.0
sS'020122110'
p4928
F0.7608515499999999
sS'020122111'
p4929
F1.0
sS'101222211'
p4930
F0.0
sS'121210210'
p4931
F0.26666285229637476
sS'121210212'
p4932
F1.5387947795462443e-16
sS'212200011'
p4933
F0.5
sS'201121000'
p4934
F0.2509052445
sS'201201001'
p4935
F1.0
sS'201201000'
p4936
F0.8062897554999999
sS'201120201'
p4937
F0.9360856268407752
sS'102000201'
p4938
F0.7847663949999999
sS'021201112'
p4939
F0.4132370994565756
sS'002121100'
p4940
F0.008794625280069997
sS'000210000'
p4941
F0.9107042130973411
sS'000210001'
p4942
F0.7331969472754435
sS'211002001'
p4943
F0.45328011874864776
sS'211002000'
p4944
F0.49937475582995505
sS'012200110'
p4945
F0.5
sS'012200112'
p4946
F0.5
sS'002211001'
p4947
F0.3482979900433881
sS'002211000'
p4948
F0.3862030938819278
sS'210121020'
p4949
F0.48948705000000003
sS'210121021'
p4950
F0.42810525000000005
sS'011012002'
p4951
F0.5
sS'211001200'
p4952
F0.45
sS'211001202'
p4953
F0.5
sS'200201011'
p4954
F0.5
sS'200201010'
p4955
F0.5005
sS'010221210'
p4956
F0.41655089925449995
sS'010221211'
p4957
F0.2657205
sS'121021122'
p4958
F0.0
sS'201202110'
p4959
F0.5
sS'201202111'
p4960
F1.0
sS'211202112'
p4961
F0.5
sS'211202110'
p4962
F0.5
sS'201021100'
p4963
F0.36450000000000005
sS'212011200'
p4964
F0.5
sS'212011201'
p4965
F0.5
sS'010001002'
p4966
F0.4770662902287798
sS'201022101'
p4967
F0.7847663949999999
sS'111220102'
p4968
F1.0
sS'121100122'
p4969
F1.0
sS'002212110'
p4970
F0.9738326183486319
sS'002212111'
p4971
F1.0
sS'210001210'
p4972
F0.45
sS'022101100'
p4973
F0.5
sS'022101102'
p4974
F0.55
sS'002112210'
p4975
F0.55
sS'002112211'
p4976
F0.5
sS'022101210'
p4977
F0.5
sS'022000101'
p4978
F0.55
sS'121112200'
p4979
F0.27298247026749284
sS'121112202'
p4980
F0.03589489938459262
sS'121212100'
p4981
F1.0
sS'110212210'
p4982
F1.0
sS'110221012'
p4983
F0.050617892310383925
sS'210002112'
p4984
F0.5
sS'100101202'
p4985
F0.45
sS'102120210'
p4986
F0.0
sS'102021001'
p4987
F0.0004887031507472639
sS'102021000'
p4988
F0.03298703804939586
sS'021000112'
p4989
F0.40545767496781276
sS'122012100'
p4990
F0.6355000000000001
sS'122012101'
p4991
F1.0
sS'200011122'
p4992
F0.6355000000000001
sS'122111122'
p4993
F1.0
sS'212000010'
p4994
F0.55
sS'020121021'
p4995
F0.0
sS'001122001'
p4996
F0.010017337426137253
sS'001122000'
p4997
F0.5314723365410692
sS'020001100'
p4998
F0.3813427551571121
sS'020001102'
p4999
F0.5
sS'112010220'
p5000
F0.885616037725195
sS'112010221'
p5001
F1.0
sS'201210001'
p5002
F0.36450000000000005
sS'201210000'
p5003
F0.5950000000000001
sS'212211010'
p5004
F1.0
sS'122011102'
p5005
F0.45750473176484996
sS'201102120'
p5006
F0.55
sS'201102121'
p5007
F0.40767351795982626
sS'202010001'
p5008
F0.3922596876251764
sS'012100221'
p5009
F0.5
sS'002001211'
p5010
F0.45
sS'002001210'
p5011
F0.5
sS'202011201'
p5012
F0.5950000000000001
sS'021012121'
p5013
F1.0
sS'120011022'
p5014
F0.55
sS'120011020'
p5015
F0.5
sS'120200112'
p5016
F0.39599196891397476
sS'120200110'
p5017
F0.49080739267000806
sS'001121200'
p5018
F0.32701038325251774
sS'001121202'
p5019
F0.21793268735626184
sS'210000021'
p5020
F0.49983318162054
sS'100021102'
p5021
F0.32151617850008585
sS'011200120'
p5022
F0.5
sS'011122102'
p5023
F0.5
sS'011212120'
p5024
F1.0
sS'212120110'
p5025
F0.0005977501264528491
sS'212120112'
p5026
F0.0
sS'122121210'
p5027
F0.0
sS'211220211'
p5028
F0.0
sS'000201000'
p5029
F0.49823109368735896
sS'000201001'
p5030
F0.49999595
sS'212101021'
p5031
F0.495
sS'220112121'
p5032
F0.5
sS'101022210'
p5033
F0.5
sS'101022211'
p5034
F1.586251065293168e-05
sS'200011201'
p5035
F0.2657205
sS'200011200'
p5036
F0.6355000000000001
sS'202110012'
p5037
F0.6355000000000001
sS'211012102'
p5038
F1.0
sS'110102002'
p5039
F0.45
sS'121200100'
p5040
F0.5
sS'121200102'
p5041
F0.8791754948370257
sS'102121021'
p5042
F0.32805000000000006
sS'010020121'
p5043
F0.06380763713361709
sS'010020120'
p5044
F0.6273552784645849
sS'021212010'
p5045
F0.55
sS'021212011'
p5046
F0.5
sS'101220201'
p5047
F0.907348990557408
sS'110212020'
p5048
F0.8062897554999999
sS'110212021'
p5049
F1.0
sS'112200112'
p5050
F0.45
sS'121000021'
p5051
F0.5
sS'121000020'
p5052
F0.7867999406493885
sS'221010201'
p5053
F0.5950000000000001
sS'210022110'
p5054
F0.5
sS'210022111'
p5055
F1.0
sS'221112100'
p5056
F1.0
sS'022011001'
p5057
F0.5
sS'022011000'
p5058
F0.5950000000000001
sS'110222010'
p5059
F0.0
sS'002121001'
p5060
F0.04033453029271315
sS'201122121'
p5061
F0.009124001815700363
sS'001021122'
p5062
F0.5
sS'001021120'
p5063
F0.32805000000000006
sS'020002011'
p5064
F0.55
sS'121222011'
p5065
F0.0
sS'002122101'
p5066
F0.8587852317595001
sS'012011122'
p5067
F0.0007230617008313988
sS'210100120'
p5068
F0.495376605
sS'210100122'
p5069
F0.5
sS'102201010'
p5070
F0.498236947712595
sS'000210211'
p5071
F0.405
sS'000210210'
p5072
F0.7342795
sS'200110210'
p5073
F0.5
sS'010221000'
p5074
F0.5165834514772286
sS'200110212'
p5075
F0.5916487177846157
sS'112020021'
p5076
F0.24064221586857604
sS'010021102'
p5077
F0.29524500000000004
sS'202001001'
p5078
F0.5
sS'102100221'
p5079
F0.5
sS'100202211'
p5080
F0.55
sS'212011012'
p5081
F1.0
sS'022211010'
p5082
F0.2742718749021848
sS'022211011'
p5083
F0.1937102445
sS'100210021'
p5084
F1.0
sS'100210020'
p5085
F0.5950000000000001
sS'101000022'
p5086
F0.78957527995
sS'021010221'
p5087
F0.6355000000000001
sS'012112210'
p5088
F1.0
sS'010002112'
p5089
F0.45
sS'001210021'
p5090
F0.5
sS'001210020'
p5091
F0.55
sS'001201210'
p5092
F0.5
sS'001201212'
p5093
F0.5
sS'021120001'
p5094
F0.005180192088955652
sS'021120000'
p5095
F0.03324930266285692
sS'220100101'
p5096
F0.5
sS'220100100'
p5097
F0.5
sS'201112020'
p5098
F0.6355000000000001
sS'201112021'
p5099
F0.39946589451
sS'021102102'
p5100
F0.5
sS'021102100'
p5101
F0.5
sS'212001021'
p5102
F0.5
sS'210200110'
p5103
F0.5
sS'210200112'
p5104
F0.5
sS'120010012'
p5105
F0.03875289372600701
sS'111202210'
p5106
F1.0
sS'111212221'
p5107
F1.0
sS'110120002'
p5108
F0.627372671347553
sS'010212112'
p5109
F1.0
sS'021022011'
p5110
F0.7342795
sS'121022100'
p5111
F0.5950000000000001
sS'121022101'
p5112
F0.32805000000000006
sS'202112112'
p5113
F0.0
sS'202112110'
p5114
F0.1937102445
sS'211220001'
p5115
F0.7847663949999999
sS'212201211'
p5116
F0.0
sS'102210012'
p5117
F0.55
sS'102210010'
p5118
F0.5095000000000001
sS'222011121'
p5119
F0.0
sS'002021110'
p5120
F0.3014159008781811
sS'002021112'
p5121
F0.20325357480622253
sS'000210021'
p5122
F0.9404668982860869
sS'112122121'
p5123
F1.0
sS'002100211'
p5124
F0.45
sS'002100210'
p5125
F0.49595
sS'112220010'
p5126
F0.38073605067405003
sS'112220011'
p5127
F0.12709329141645
sS'121021102'
p5128
F0.000558597304082084
sS'020111212'
p5129
F1.0
sS'100200112'
p5130
F0.4502666854220426
sS'110020210'
p5131
F0.2657205
sS'110020212'
p5132
F0.5
sS'201021010'
p5133
F0.45
sS'201021012'
p5134
F0.0
sS'101211220'
p5135
F0.5
sS'022010011'
p5136
F0.32805000000000006
sS'022010010'
p5137
F0.39276957146191976
sS'010001022'
p5138
F0.5
sS'010001020'
p5139
F0.5
sS'101120202'
p5140
F0.6850321155
sS'101120200'
p5141
F0.011347999101508315
sS'021202110'
p5142
F0.5
sS'021202111'
p5143
F1.0
sS'002011012'
p5144
F0.505
sS'102201201'
p5145
F0.55
sS'100000102'
p5146
F0.7607595801886505
sS'121112221'
p5147
F1.0
sS'121112220'
p5148
F0.5950000000000001
sS'212011221'
p5149
F0.704755
sS'101002012'
p5150
F0.5
sS'020210211'
p5151
F0.559999
sS'020112102'
p5152
F0.6355000000000001
sS'020112100'
p5153
F0.505
sS'200120211'
p5154
F0.04677090769549158
sS'102220011'
p5155
F0.5950000000000001
sS'000002011'
p5156
F0.49918999999999997
sS'011210212'
p5157
F1.0
sS'212102110'
p5158
F0.5
sS'212102112'
p5159
F0.0
sS'222001011'
p5160
F0.0
sS'220111102'
p5161
F1.0
sS'111022201'
p5162
F1.0
sS'112210012'
p5163
F1.0
sS'002001112'
p5164
F0.43669269907440295
sS'022110010'
p5165
F0.32805000000000006
sS'022110012'
p5166
F0.8989948325256604
sS'100002112'
p5167
F0.45
sS'001022011'
p5168
F0.0057934179538617694
sS'001022010'
p5169
F0.4819820960926821
sS'000102211'
p5170
F0.5
sS'000102210'
p5171
F0.5
sS'001201002'
p5172
F0.49961122430000005
sS'001020000'
p5173
F0.06409361619907473
sS'201210021'
p5174
F0.9747381185262198
sS'202121110'
p5175
F0.0011092656172311303
sS'202121112'
p5176
F0.0
sS'122122011'
p5177
F0.5
sS'011021122'
p5178
F0.5
sS'202001211'
p5179
F0.5
sS'102112002'
p5180
F0.0
sS'102112000'
p5181
F0.32805000000000006
sS'101020012'
p5182
F0.003981131324303742
sS'021012100'
p5183
F1.0
sS'120011002'
p5184
F0.4840169612804623
sS'021220101'
p5185
F0.6355000000000001
sS'002001012'
p5186
F0.4998873932459722
sS'100211220'
p5187
F0.55
sS'100211221'
p5188
F1.0
sS'001010221'
p5189
F0.5180500000000001
sS'001010220'
p5190
F0.5014
sS'210000000'
p5191
F0.484756045758372
sS'210000001'
p5192
F0.47024773030699063
sS'102002101'
p5193
F0.5
sS'102002100'
p5194
F0.8070092019550001
sS'121001202'
p5195
F0.47315745000000003
sS'121001200'
p5196
F0.4994145
sS'110120212'
p5197
F0.09265100944259205
sS'100122112'
p5198
F1.0
sS'011112202'
p5199
F0.0029401613092974697
sS'011212102'
p5200
F1.0
sS'020221011'
p5201
F0.7342795
sS'221100021'
p5202
F0.5
sS'200001210'
p5203
F0.49458007241999996
sS'012201210'
p5204
F0.5
sS'212101002'
p5205
F0.5
sS'212101000'
p5206
F0.5
sS'102020011'
p5207
F0.33979500000000007
sS'211221010'
p5208
F0.29524500000000004
sS'211221012'
p5209
F0.0
sS'002000010'
p5210
F0.5074226957956476
sS'002000011'
p5211
F0.5203606437169731
sS'120010201'
p5212
F1.0
sS'120010200'
p5213
F0.5950000000000001
sS'200021121'
p5214
F0.7342795
sS'102211002'
p5215
F0.09893354183741124
sS'102211000'
p5216
F0.3537386838338752
sS'202210011'
p5217
F0.5
sS'012012100'
p5218
F0.36450000000000005
sS'110102020'
p5219
F0.5
sS'110102022'
p5220
F0.5
sS'102121000'
p5221
F0.054630377609855486
sS'102121002'
p5222
F0.8587852317595001
sS'110200012'
p5223
F0.5
sS'100012102'
p5224
F0.45
sS'211002210'
p5225
F0.55
sS'211002211'
p5226
F0.45
sS'121000002'
p5227
F0.6891180726254853
sS'002211210'
p5228
F0.5950000000000001
sS'002211211'
p5229
F0.45
sS'120120021'
p5230
F0.0
sS'101102122'
p5231
F1.0
sS'112221000'
p5232
F0.14334556666613132
sS'112221001'
p5233
F6.462036537059073e-05
sS'001221210'
p5234
F0.5950000000000001
sS'110102122'
p5235
F1.0
sS'022001011'
p5236
F0.45
sS'022001010'
p5237
F0.4970034988980687
sS'000020010'
p5238
F0.06917731636813877
sS'221112121'
p5239
F1.0
sS'000020011'
p5240
F0.04615792303705567
sS'220112100'
p5241
F0.5950000000000001
sS'220112101'
p5242
F0.45
sS'201122100'
p5243
F0.2529536590596395
sS'201122101'
p5244
F0.05597206791252983
sS'121211200'
p5245
F0.4494883221538436
sS'121211202'
p5246
F0.023550643486231218
sS'110000002'
p5247
F0.49740849558899997
sS'001021102'
p5248
F0.037287360058687075
sS'202100121'
p5249
F0.5
sS'100211200'
p5250
F0.28405408605466104
sS'002010000'
p5251
F0.44821336227016517
sS'002010001'
p5252
F0.4401322214273112
sS'100121002'
p5253
F0.3569893682243857
sS'201111022'
p5254
F1.0
sS'110000020'
p5255
F0.499036862135039
sS'110000022'
p5256
F0.5950000000000001
sS'001211202'
p5257
F0.001520176828415833
sS'001211200'
p5258
F0.23914845
sS'121000200'
p5259
F0.6794711050698647
sS'122021112'
p5260
F0.9764493565137687
sS'122021110'
p5261
F0.7084845047515645
sS'201000010'
p5262
F0.4996718762067057
sS'201000012'
p5263
F0.5
sS'122121000'
p5264
F0.82566077995
sS'010221021'
p5265
F0.9044784145414837
sS'002100021'
p5266
F0.5
sS'121122112'
p5267
F1.0
sS'010200112'
p5268
F0.5
sS'112020001'
p5269
F0.007842217829391523
sS'112020000'
p5270
F0.012326219373306678
sS'102100201'
p5271
F0.5
sS'102100200'
p5272
F0.555854660317369
sS'101002201'
p5273
F0.505
sS'101002200'
p5274
F0.7847663949999999
sS'122100100'
p5275
F1.0
sS'222011001'
p5276
F0.0
sS'012121212'
p5277
F0.0
sS'120000000'
p5278
F0.7022095993582992
sS'100210000'
p5279
F0.5269113033670001
sS'212121210'
p5280
F0.0
sS'201112221'
p5281
F0.1412147682405
sS'200112010'
p5282
F0.42483754956060904
sS'001210000'
p5283
F0.4982805
sS'210111220'
p5284
F1.0
sS'020102001'
p5285
F0.5
sS'011200102'
p5286
F0.5
sS'001200010'
p5287
F0.4966826255760921
sS'001200012'
p5288
F0.5
sS'011221201'
p5289
F1.0
sS'011000020'
p5290
F0.499995
sS'011000022'
p5291
F0.5950000000000001
sS'021102120'
p5292
F0.5
sS'021102121'
p5293
F0.45
sS'102110212'
p5294
F0.36450000000000005
sS'011222010'
p5295
F0.0
sS'211020102'
p5296
F0.0
sS'211020100'
p5297
F0.00522629805390282
sS'110120020'
p5298
F0.6180380421973608
sS'110120022'
p5299
F0.7608515499999999
sS'001122210'
p5300
F0.4851605210887845
sS'001122211'
p5301
F7.494839494030236e-07
sS'111021202'
p5302
F1.0
sS'121022121'
p5303
F0.0
sS'220121100'
p5304
F0.48195
sS'220121101'
p5305
F0.36450000000000005
sS'000102021'
p5306
F0.5
sS'210122001'
p5307
F0.490504360432905
sS'100220110'
p5308
F0.0009476851269388881
sS'212101212'
p5309
F0.5
sS'212101210'
p5310
F0.5
sS'101012122'
p5311
F1.0
sS'102112212'
p5312
F0.0
sS'102112210'
p5313
F0.45
sS'112122100'
p5314
F1.0
sS'220001110'
p5315
F0.45
sS'220001112'
p5316
F0.5
sS'102200112'
p5317
F0.49485735000000003
sS'102200110'
p5318
F0.49982805
sS'210121200'
p5319
F0.5
sS'210121201'
p5320
F0.36450000000000005
sS'102002010'
p5321
F0.5005
sS'101120220'
p5322
F0.7342795
sS'101120221'
p5323
F0.29427818489100005
sS'121100202'
p5324
F0.49191345
sS'101211202'
p5325
F0.0020556720170244514
sS'121100200'
p5326
F0.4491605957762417
sS'100222011'
p5327
F0.0
sS'200011012'
p5328
F0.5394971395
sS'211210120'
p5329
F1.0
sS'012201201'
p5330
F0.5
sS'200100211'
p5331
F0.5
sS'200100210'
p5332
F0.5
sS'100121212'
p5333
F0.09356340962416208
sS'101220012'
p5334
F0.6657391843465291
sS'101220010'
p5335
F0.005283583521502707
sS'220201110'
p5336
F0.54
sS'220201111'
p5337
F1.0
sS'100000122'
p5338
F0.7823749105
sS'100000120'
p5339
F0.7126692624639888
sS'020120001'
p5340
F0.4188139448476816
sS'100201221'
p5341
F0.55
sS'121011022'
p5342
F0.405
sS'100000200'
p5343
F0.7017706368367657
sS'211100122'
p5344
F0.5
sS'020112120'
p5345
F0.55
sS'020112121'
p5346
F0.5
sS'100210200'
p5347
F0.5950000000000001
sS'022011210'
p5348
F0.5950000000000001
sS'022011211'
p5349
F0.5
sS'011022102'
p5350
F0.55
sS'011022100'
p5351
F0.001332365356238929
sS'000001021'
p5352
F0.5
sS'000012000'
p5353
F0.8510614208348564
sS'000012001'
p5354
F0.5047336739668551
sS'222010011'
p5355
F0.0
sS'000101221'
p5356
F0.5
sS'000101220'
p5357
F0.55
sS'120000211'
p5358
F0.49832099999999996
sS'120000210'
p5359
F0.4996086998403698
sS'220111120'
p5360
F1.0
sS'120101220'
p5361
F0.55
sS'120101221'
p5362
F0.5
sS'000121020'
p5363
F0.49972949999999994
sS'001201021'
p5364
F1.0
sS'001201020'
p5365
F0.55
sS'020211010'
p5366
F0.4142061066783772
sS'020211012'
p5367
F0.03141562889151689
sS'210111202'
p5368
F1.0
sS'021001201'
p5369
F1.0
sS'021001200'
p5370
F0.67195
sS'021121102'
p5371
F0.156905298045
sS'221122111'
p5372
F1.0
sS'221122110'
p5373
F0.885616037725195
sS'122201010'
p5374
F0.5018499999999999
sS'122201011'
p5375
F0.54073
sS'000112210'
p5376
F0.31922228511649436
sS'212121021'
p5377
F0.23914845
sS'000112212'
p5378
F0.6491583851718402
sS'120101212'
p5379
F0.3186911571599021
sS'001010202'
p5380
F0.035470202967805294
sS'001010200'
p5381
F0.3327989620560865
sS'000200011'
p5382
F0.5
sS'102002121'
p5383
F0.55
sS'022112121'
p5384
F0.55
sS'120102112'
p5385
F1.0
sS'021120210'
p5386
F0.13646713646919648
sS'021120211'
p5387
F0.00018514866009016926
sS'011112222'
p5388
F0.0
sS'011112220'
p5389
F0.156905298045
sS'220011010'
p5390
F0.36450000000000005
sS'221100001'
p5391
F0.5
sS'221100000'
p5392
F0.503065
sS'221210101'
p5393
F1.0
sS'212101020'
p5394
F0.55
sS'200020111'
p5395
F1.0
sS'102112020'
p5396
F0.7342795
sS'102112021'
p5397
F1.0
sS'201100210'
p5398
F0.4783094735135868
sS'201100212'
p5399
F0.5
sS'200021101'
p5400
F0.6332105813086862
sS'200021100'
p5401
F0.5414482181928865
sS'102211020'
p5402
F0.55
sS'102211021'
p5403
F1.0
sS'012002001'
p5404
F0.500005
sS'012012120'
p5405
F0.5
sS'012012121'
p5406
F0.39834744772905
sS'201020112'
p5407
F0.0
sS'201020110'
p5408
F0.45
sS'100012120'
p5409
F0.5
sS'100012122'
p5410
F0.8970544339526756
sS'102122010'
p5411
F0.5
sS'102122011'
p5412
F0.5
sS'121001220'
p5413
F0.5
sS'121001221'
p5414
F1.0
sS'120121200'
p5415
F0.474255
sS'120121201'
p5416
F0.1412147682405
sS'212012001'
p5417
F0.5950000000000001
sS'120120001'
p5418
F0.36196866381195003
sS'120120000'
p5419
F0.885616037725195
sS'000022101'
p5420
F0.837459963990974
sS'112221021'
p5421
F0.023550643486231218
sS'100101022'
p5422
F0.45
sS'022210011'
p5423
F0.55
sS'020012011'
p5424
F0.505
sS'020012010'
p5425
F0.7080207999081615
sS'000000201'
p5426
F0.5994379798282129
sS'021021010'
p5427
F0.47294387194875953
sS'021021012'
p5428
F0.19834590241647226
sS'200000010'
p5429
F0.7235058061009148
sS'200000011'
p5430
F0.5
sS'121211221'
p5431
F1.0
sS'121211220'
p5432
F0.55
sS'002102121'
p5433
F0.55
sS'122001021'
p5434
F0.5
sS'202100101'
p5435
F0.405
sS'202100100'
p5436
F0.47059619754003973
sS'012122010'
p5437
F0.495
sS'012122011'
p5438
F0.45
sS'010022001'
p5439
F0.3784031630090467
sS'002010021'
p5440
F0.9474074493199187
sS'100121020'
p5441
F0.36450000000000005
sS'100121022'
p5442
F0.55
sS'110001202'
p5443
F0.45
sS'000211122'
p5444
F0.8644219895952625
sS'000211120'
p5445
F0.49463552827417223
sS'001211220'
p5446
F0.7342795
sS'001211221'
p5447
F1.0
sS'200100021'
p5448
F0.5
sS'002100000'
p5449
F0.5043390255022742
sS'002100001'
p5450
F0.4989465686289389
sS'122210010'
p5451
F0.5950000000000001
sS'001002211'
p5452
F0.48326461134017706
sS'001002210'
p5453
F0.5005886474827858
sS'011001202'
p5454
F0.45
sS'211001020'
p5455
F0.498934766395
sS'101002221'
p5456
F0.55
sS'122100121'
p5457
F1.0
sS'020120211'
p5458
F0.2037239344204972
sS'120000021'
p5459
F0.55
sS'010221001'
p5460
F0.12626481944352683
sS'001221211'
p5461
F1.0
sS'210102210'
p5462
F0.55
sS'210102211'
p5463
F0.4292603733548333
sS'201112200'
p5464
F0.2767680613531981
sS'201112201'
p5465
F0.1258401708556024
sS'010010200'
p5466
F0.3993457586989321
sS'010010202'
p5467
F0.9676945905538666
sS'221021010'
p5468
F0.55
sS'221021011'
p5469
F1.0
sS'201200001'
p5470
F0.55
sS'020200011'
p5471
F0.55
sS'011000002'
p5472
F0.5453224264281586
sS'010120021'
p5473
F0.3130308057641779
sS'010120020'
p5474
F0.5517877781524274
sS'020102121'
p5475
F0.5
sS'122210011'
p5476
F1.0
sS'002210001'
p5477
F0.720507783383806
sS'000221211'
p5478
F0.7522894450000001
sS'100102221'
p5479
F0.5
sS'000012211'
p5480
F0.5
sS'000012210'
p5481
F0.704755
s.